

Microchip MPLAB XC8 Assembler V2.20 build 20200408173844 
                                                                                               Fri Oct 30 11:15:54 2020

Microchip MPLAB XC8 C Compiler v2.20 (Free license) build 20200408173844 Og1 
     1                           	processor	16F887
     2                           	pagewidth 120
     3                           	opt	flic
     4                           	psect	cinit,global,class=CODE,merge=1,delta=2
     5                           	psect	bssBANK1,global,class=BANK1,space=1,delta=1,noexec
     6                           	psect	bssBANK3,global,class=BANK3,space=1,delta=1,noexec
     7                           	psect	bssBANK2,global,class=BANK2,space=1,delta=1,noexec
     8                           	psect	clrtext,global,class=CODE,delta=2
     9                           	psect	cstackBANK3,global,class=BANK3,space=1,delta=1,noexec
    10                           	psect	cstackBANK1,global,class=BANK1,space=1,delta=1,noexec
    11                           	psect	cstackCOMMON,global,class=COMMON,space=1,delta=1,noexec
    12                           	psect	cstackBANK0,global,class=BANK0,space=1,delta=1,noexec
    13                           	psect	maintext,global,class=CODE,split=1,delta=2
    14                           	psect	text1,local,class=CODE,merge=1,delta=2,group=1
    15                           	psect	text2,local,class=CODE,merge=1,delta=2
    16                           	psect	text3,local,class=CODE,merge=1,delta=2
    17                           	psect	text4,local,class=CODE,merge=1,delta=2
    18                           	psect	text5,local,class=CODE,merge=1,delta=2,group=1
    19                           	psect	text6,local,class=CODE,merge=1,delta=2
    20                           	psect	text7,local,class=CODE,merge=1,delta=2
    21                           	psect	text8,local,class=CODE,merge=1,delta=2
    22                           	psect	text9,local,class=CODE,merge=1,delta=2
    23                           	psect	intentry,global,class=CODE,delta=2
    24                           	psect	text10,local,class=CODE,merge=1,delta=2
    25                           	psect	text11,local,class=CODE,merge=1,delta=2
    26                           	psect	text12,local,class=CODE,merge=1,delta=2
    27                           	psect	text13,local,class=CODE,merge=1,delta=2
    28                           	psect	text14,local,class=CODE,merge=1,delta=2
    29                           	psect	text15,local,class=CODE,merge=1,delta=2,group=1
    30                           	psect	text16,local,class=CODE,merge=1,delta=2,group=1
    31                           	psect	text17,local,class=CODE,merge=1,delta=2,group=1
    32                           	psect	text18,local,class=CODE,merge=1,delta=2,group=1
    33                           	psect	text19,local,class=CODE,merge=1,delta=2,group=1
    34                           	psect	text20,local,class=CODE,merge=1,delta=2,group=1
    35                           	psect	config,global,abs,ovrld,class=CONFIG,space=4,delta=2,noexec
    36                           	dabs	1,0x7E,2
    37  0000                     
    38                           ; Version 2.20
    39                           ; Generated 12/02/2020 GMT
    40                           ; 
    41                           ; Copyright © 2020, Microchip Technology Inc. and its subsidiaries ("Microchip")
    42                           ; All rights reserved.
    43                           ; 
    44                           ; This software is developed by Microchip Technology Inc. and its subsidiaries ("Microch
      +                          ip").
    45                           ; 
    46                           ; Redistribution and use in source and binary forms, with or without modification, are
    47                           ; permitted provided that the following conditions are met:
    48                           ; 
    49                           ;     1. Redistributions of source code must retain the above copyright notice, this lis
      +                          t of
    50                           ;        conditions and the following disclaimer.
    51                           ; 
    52                           ;     2. Redistributions in binary form must reproduce the above copyright notice, this 
      +                          list
    53                           ;        of conditions and the following disclaimer in the documentation and/or other
    54                           ;        materials provided with the distribution.
    55                           ; 
    56                           ;     3. Microchip's name may not be used to endorse or promote products derived from th
      +                          is
    57                           ;        software without specific prior written permission.
    58                           ; 
    59                           ; THIS SOFTWARE IS PROVIDED BY MICROCHIP "AS IS" AND ANY EXPRESS OR IMPLIED WARRANTIES,
    60                           ; INCLUDING, BUT NOT LIMITED TO, THE IMPLIED WARRANTIES OF MERCHANTABILITY AND FITNESS F
      +                          OR
    61                           ; PURPOSE ARE DISCLAIMED.  IN NO EVENT SHALL MICROCHIP BE LIABLE FOR ANY DIRECT, INDIREC
      +                          T,
    62                           ; INCIDENTAL, SPECIAL, EXEMPLARY, OR CONSEQUENTIAL DAMAGES (INCLUDING BUT NOT LIMITED TO
    63                           ; PROCUREMENT OF SUBSTITUTE GOODS OR SERVICES; LOSS OF USE, DATA OR PROFITS; OR BUSINESS
    64                           ; INTERRUPTION) HOWSOEVER CAUSED AND ON ANY THEORY OF LIABILITY, WHETHER IN CONTRACT, ST
      +                          RICT
    65                           ; LIABILITY, OR TORT (INCLUDING NEGLIGENCE OR OTHERWISE) ARISING IN ANY WAY OUT OF THE U
      +                          SE OF
    66                           ; THIS SOFTWARE, EVEN IF ADVISED OF THE POSSIBILITY OF SUCH DAMAGE.
    67                           ; 
    68                           ; 
    69                           ; Code-generator required, PIC16F887 Definitions
    70                           ; 
    71                           ; SFR Addresses
    72  0000                     	;# 
    73  0001                     	;# 
    74  0002                     	;# 
    75  0003                     	;# 
    76  0004                     	;# 
    77  0005                     	;# 
    78  0006                     	;# 
    79  0007                     	;# 
    80  0008                     	;# 
    81  0009                     	;# 
    82  000A                     	;# 
    83  000B                     	;# 
    84  000C                     	;# 
    85  000D                     	;# 
    86  000E                     	;# 
    87  000E                     	;# 
    88  000F                     	;# 
    89  0010                     	;# 
    90  0011                     	;# 
    91  0012                     	;# 
    92  0013                     	;# 
    93  0014                     	;# 
    94  0015                     	;# 
    95  0015                     	;# 
    96  0016                     	;# 
    97  0017                     	;# 
    98  0018                     	;# 
    99  0019                     	;# 
   100  001A                     	;# 
   101  001B                     	;# 
   102  001B                     	;# 
   103  001C                     	;# 
   104  001D                     	;# 
   105  001E                     	;# 
   106  001F                     	;# 
   107  0081                     	;# 
   108  0085                     	;# 
   109  0086                     	;# 
   110  0087                     	;# 
   111  0088                     	;# 
   112  0089                     	;# 
   113  008C                     	;# 
   114  008D                     	;# 
   115  008E                     	;# 
   116  008F                     	;# 
   117  0090                     	;# 
   118  0091                     	;# 
   119  0092                     	;# 
   120  0093                     	;# 
   121  0093                     	;# 
   122  0093                     	;# 
   123  0094                     	;# 
   124  0095                     	;# 
   125  0096                     	;# 
   126  0097                     	;# 
   127  0098                     	;# 
   128  0099                     	;# 
   129  009A                     	;# 
   130  009B                     	;# 
   131  009C                     	;# 
   132  009D                     	;# 
   133  009E                     	;# 
   134  009F                     	;# 
   135  0105                     	;# 
   136  0107                     	;# 
   137  0108                     	;# 
   138  0109                     	;# 
   139  010C                     	;# 
   140  010C                     	;# 
   141  010D                     	;# 
   142  010E                     	;# 
   143  010F                     	;# 
   144  0185                     	;# 
   145  0187                     	;# 
   146  0188                     	;# 
   147  0189                     	;# 
   148  018C                     	;# 
   149  018D                     	;# 
   150  0000                     	;# 
   151  0001                     	;# 
   152  0002                     	;# 
   153  0003                     	;# 
   154  0004                     	;# 
   155  0005                     	;# 
   156  0006                     	;# 
   157  0007                     	;# 
   158  0008                     	;# 
   159  0009                     	;# 
   160  000A                     	;# 
   161  000B                     	;# 
   162  000C                     	;# 
   163  000D                     	;# 
   164  000E                     	;# 
   165  000E                     	;# 
   166  000F                     	;# 
   167  0010                     	;# 
   168  0011                     	;# 
   169  0012                     	;# 
   170  0013                     	;# 
   171  0014                     	;# 
   172  0015                     	;# 
   173  0015                     	;# 
   174  0016                     	;# 
   175  0017                     	;# 
   176  0018                     	;# 
   177  0019                     	;# 
   178  001A                     	;# 
   179  001B                     	;# 
   180  001B                     	;# 
   181  001C                     	;# 
   182  001D                     	;# 
   183  001E                     	;# 
   184  001F                     	;# 
   185  0081                     	;# 
   186  0085                     	;# 
   187  0086                     	;# 
   188  0087                     	;# 
   189  0088                     	;# 
   190  0089                     	;# 
   191  008C                     	;# 
   192  008D                     	;# 
   193  008E                     	;# 
   194  008F                     	;# 
   195  0090                     	;# 
   196  0091                     	;# 
   197  0092                     	;# 
   198  0093                     	;# 
   199  0093                     	;# 
   200  0093                     	;# 
   201  0094                     	;# 
   202  0095                     	;# 
   203  0096                     	;# 
   204  0097                     	;# 
   205  0098                     	;# 
   206  0099                     	;# 
   207  009A                     	;# 
   208  009B                     	;# 
   209  009C                     	;# 
   210  009D                     	;# 
   211  009E                     	;# 
   212  009F                     	;# 
   213  0105                     	;# 
   214  0107                     	;# 
   215  0108                     	;# 
   216  0109                     	;# 
   217  010C                     	;# 
   218  010C                     	;# 
   219  010D                     	;# 
   220  010E                     	;# 
   221  010F                     	;# 
   222  0185                     	;# 
   223  0187                     	;# 
   224  0188                     	;# 
   225  0189                     	;# 
   226  018C                     	;# 
   227  018D                     	;# 
   228  0000                     	;# 
   229  0001                     	;# 
   230  0002                     	;# 
   231  0003                     	;# 
   232  0004                     	;# 
   233  0005                     	;# 
   234  0006                     	;# 
   235  0007                     	;# 
   236  0008                     	;# 
   237  0009                     	;# 
   238  000A                     	;# 
   239  000B                     	;# 
   240  000C                     	;# 
   241  000D                     	;# 
   242  000E                     	;# 
   243  000E                     	;# 
   244  000F                     	;# 
   245  0010                     	;# 
   246  0011                     	;# 
   247  0012                     	;# 
   248  0013                     	;# 
   249  0014                     	;# 
   250  0015                     	;# 
   251  0015                     	;# 
   252  0016                     	;# 
   253  0017                     	;# 
   254  0018                     	;# 
   255  0019                     	;# 
   256  001A                     	;# 
   257  001B                     	;# 
   258  001B                     	;# 
   259  001C                     	;# 
   260  001D                     	;# 
   261  001E                     	;# 
   262  001F                     	;# 
   263  0081                     	;# 
   264  0085                     	;# 
   265  0086                     	;# 
   266  0087                     	;# 
   267  0088                     	;# 
   268  0089                     	;# 
   269  008C                     	;# 
   270  008D                     	;# 
   271  008E                     	;# 
   272  008F                     	;# 
   273  0090                     	;# 
   274  0091                     	;# 
   275  0092                     	;# 
   276  0093                     	;# 
   277  0093                     	;# 
   278  0093                     	;# 
   279  0094                     	;# 
   280  0095                     	;# 
   281  0096                     	;# 
   282  0097                     	;# 
   283  0098                     	;# 
   284  0099                     	;# 
   285  009A                     	;# 
   286  009B                     	;# 
   287  009C                     	;# 
   288  009D                     	;# 
   289  009E                     	;# 
   290  009F                     	;# 
   291  0105                     	;# 
   292  0107                     	;# 
   293  0108                     	;# 
   294  0109                     	;# 
   295  010C                     	;# 
   296  010C                     	;# 
   297  010D                     	;# 
   298  010E                     	;# 
   299  010F                     	;# 
   300  0185                     	;# 
   301  0187                     	;# 
   302  0188                     	;# 
   303  0189                     	;# 
   304  018C                     	;# 
   305  018D                     	;# 
   306  0000                     	;# 
   307  0001                     	;# 
   308  0002                     	;# 
   309  0003                     	;# 
   310  0004                     	;# 
   311  0005                     	;# 
   312  0006                     	;# 
   313  0007                     	;# 
   314  0008                     	;# 
   315  0009                     	;# 
   316  000A                     	;# 
   317  000B                     	;# 
   318  000C                     	;# 
   319  000D                     	;# 
   320  000E                     	;# 
   321  000E                     	;# 
   322  000F                     	;# 
   323  0010                     	;# 
   324  0011                     	;# 
   325  0012                     	;# 
   326  0013                     	;# 
   327  0014                     	;# 
   328  0015                     	;# 
   329  0015                     	;# 
   330  0016                     	;# 
   331  0017                     	;# 
   332  0018                     	;# 
   333  0019                     	;# 
   334  001A                     	;# 
   335  001B                     	;# 
   336  001B                     	;# 
   337  001C                     	;# 
   338  001D                     	;# 
   339  001E                     	;# 
   340  001F                     	;# 
   341  0081                     	;# 
   342  0085                     	;# 
   343  0086                     	;# 
   344  0087                     	;# 
   345  0088                     	;# 
   346  0089                     	;# 
   347  008C                     	;# 
   348  008D                     	;# 
   349  008E                     	;# 
   350  008F                     	;# 
   351  0090                     	;# 
   352  0091                     	;# 
   353  0092                     	;# 
   354  0093                     	;# 
   355  0093                     	;# 
   356  0093                     	;# 
   357  0094                     	;# 
   358  0095                     	;# 
   359  0096                     	;# 
   360  0097                     	;# 
   361  0098                     	;# 
   362  0099                     	;# 
   363  009A                     	;# 
   364  009B                     	;# 
   365  009C                     	;# 
   366  009D                     	;# 
   367  009E                     	;# 
   368  009F                     	;# 
   369  0105                     	;# 
   370  0107                     	;# 
   371  0108                     	;# 
   372  0109                     	;# 
   373  010C                     	;# 
   374  010C                     	;# 
   375  010D                     	;# 
   376  010E                     	;# 
   377  010F                     	;# 
   378  0185                     	;# 
   379  0187                     	;# 
   380  0188                     	;# 
   381  0189                     	;# 
   382  018C                     	;# 
   383  018D                     	;# 
   384  0000                     	;# 
   385  0001                     	;# 
   386  0002                     	;# 
   387  0003                     	;# 
   388  0004                     	;# 
   389  0005                     	;# 
   390  0006                     	;# 
   391  0007                     	;# 
   392  0008                     	;# 
   393  0009                     	;# 
   394  000A                     	;# 
   395  000B                     	;# 
   396  000C                     	;# 
   397  000D                     	;# 
   398  000E                     	;# 
   399  000E                     	;# 
   400  000F                     	;# 
   401  0010                     	;# 
   402  0011                     	;# 
   403  0012                     	;# 
   404  0013                     	;# 
   405  0014                     	;# 
   406  0015                     	;# 
   407  0015                     	;# 
   408  0016                     	;# 
   409  0017                     	;# 
   410  0018                     	;# 
   411  0019                     	;# 
   412  001A                     	;# 
   413  001B                     	;# 
   414  001B                     	;# 
   415  001C                     	;# 
   416  001D                     	;# 
   417  001E                     	;# 
   418  001F                     	;# 
   419  0081                     	;# 
   420  0085                     	;# 
   421  0086                     	;# 
   422  0087                     	;# 
   423  0088                     	;# 
   424  0089                     	;# 
   425  008C                     	;# 
   426  008D                     	;# 
   427  008E                     	;# 
   428  008F                     	;# 
   429  0090                     	;# 
   430  0091                     	;# 
   431  0092                     	;# 
   432  0093                     	;# 
   433  0093                     	;# 
   434  0093                     	;# 
   435  0094                     	;# 
   436  0095                     	;# 
   437  0096                     	;# 
   438  0097                     	;# 
   439  0098                     	;# 
   440  0099                     	;# 
   441  009A                     	;# 
   442  009B                     	;# 
   443  009C                     	;# 
   444  009D                     	;# 
   445  009E                     	;# 
   446  009F                     	;# 
   447  0105                     	;# 
   448  0107                     	;# 
   449  0108                     	;# 
   450  0109                     	;# 
   451  010C                     	;# 
   452  010C                     	;# 
   453  010D                     	;# 
   454  010E                     	;# 
   455  010F                     	;# 
   456  0185                     	;# 
   457  0187                     	;# 
   458  0188                     	;# 
   459  0189                     	;# 
   460  018C                     	;# 
   461  018D                     	;# 
   462  0000                     	;# 
   463  0001                     	;# 
   464  0002                     	;# 
   465  0003                     	;# 
   466  0004                     	;# 
   467  0005                     	;# 
   468  0006                     	;# 
   469  0007                     	;# 
   470  0008                     	;# 
   471  0009                     	;# 
   472  000A                     	;# 
   473  000B                     	;# 
   474  000C                     	;# 
   475  000D                     	;# 
   476  000E                     	;# 
   477  000E                     	;# 
   478  000F                     	;# 
   479  0010                     	;# 
   480  0011                     	;# 
   481  0012                     	;# 
   482  0013                     	;# 
   483  0014                     	;# 
   484  0015                     	;# 
   485  0015                     	;# 
   486  0016                     	;# 
   487  0017                     	;# 
   488  0018                     	;# 
   489  0019                     	;# 
   490  001A                     	;# 
   491  001B                     	;# 
   492  001B                     	;# 
   493  001C                     	;# 
   494  001D                     	;# 
   495  001E                     	;# 
   496  001F                     	;# 
   497  0081                     	;# 
   498  0085                     	;# 
   499  0086                     	;# 
   500  0087                     	;# 
   501  0088                     	;# 
   502  0089                     	;# 
   503  008C                     	;# 
   504  008D                     	;# 
   505  008E                     	;# 
   506  008F                     	;# 
   507  0090                     	;# 
   508  0091                     	;# 
   509  0092                     	;# 
   510  0093                     	;# 
   511  0093                     	;# 
   512  0093                     	;# 
   513  0094                     	;# 
   514  0095                     	;# 
   515  0096                     	;# 
   516  0097                     	;# 
   517  0098                     	;# 
   518  0099                     	;# 
   519  009A                     	;# 
   520  009B                     	;# 
   521  009C                     	;# 
   522  009D                     	;# 
   523  009E                     	;# 
   524  009F                     	;# 
   525  0105                     	;# 
   526  0107                     	;# 
   527  0108                     	;# 
   528  0109                     	;# 
   529  010C                     	;# 
   530  010C                     	;# 
   531  010D                     	;# 
   532  010E                     	;# 
   533  010F                     	;# 
   534  0185                     	;# 
   535  0187                     	;# 
   536  0188                     	;# 
   537  0189                     	;# 
   538  018C                     	;# 
   539  018D                     	;# 
   540  0000                     	;# 
   541  0001                     	;# 
   542  0002                     	;# 
   543  0003                     	;# 
   544  0004                     	;# 
   545  0005                     	;# 
   546  0006                     	;# 
   547  0007                     	;# 
   548  0008                     	;# 
   549  0009                     	;# 
   550  000A                     	;# 
   551  000B                     	;# 
   552  000C                     	;# 
   553  000D                     	;# 
   554  000E                     	;# 
   555  000E                     	;# 
   556  000F                     	;# 
   557  0010                     	;# 
   558  0011                     	;# 
   559  0012                     	;# 
   560  0013                     	;# 
   561  0014                     	;# 
   562  0015                     	;# 
   563  0015                     	;# 
   564  0016                     	;# 
   565  0017                     	;# 
   566  0018                     	;# 
   567  0019                     	;# 
   568  001A                     	;# 
   569  001B                     	;# 
   570  001B                     	;# 
   571  001C                     	;# 
   572  001D                     	;# 
   573  001E                     	;# 
   574  001F                     	;# 
   575  0081                     	;# 
   576  0085                     	;# 
   577  0086                     	;# 
   578  0087                     	;# 
   579  0088                     	;# 
   580  0089                     	;# 
   581  008C                     	;# 
   582  008D                     	;# 
   583  008E                     	;# 
   584  008F                     	;# 
   585  0090                     	;# 
   586  0091                     	;# 
   587  0092                     	;# 
   588  0093                     	;# 
   589  0093                     	;# 
   590  0093                     	;# 
   591  0094                     	;# 
   592  0095                     	;# 
   593  0096                     	;# 
   594  0097                     	;# 
   595  0098                     	;# 
   596  0099                     	;# 
   597  009A                     	;# 
   598  009B                     	;# 
   599  009C                     	;# 
   600  009D                     	;# 
   601  009E                     	;# 
   602  009F                     	;# 
   603  0105                     	;# 
   604  0107                     	;# 
   605  0108                     	;# 
   606  0109                     	;# 
   607  010C                     	;# 
   608  010C                     	;# 
   609  010D                     	;# 
   610  010E                     	;# 
   611  010F                     	;# 
   612  0185                     	;# 
   613  0187                     	;# 
   614  0188                     	;# 
   615  0189                     	;# 
   616  018C                     	;# 
   617  018D                     	;# 
   618  000E                     _TMR1	set	14
   619  0015                     _CCPR1L	set	21
   620  0017                     _CCP1CONbits	set	23
   621  0011                     _TMR2	set	17
   622  0012                     _T2CONbits	set	18
   623  0010                     _T1CONbits	set	16
   624  0001                     _TMR0	set	1
   625  000C                     _PIR1bits	set	12
   626  000B                     _INTCONbits	set	11
   627  0091                     _T2CKPS1	set	145
   628  0092                     _TMR2ON	set	146
   629  0092                     _PR2	set	146
   630  0089                     _TRISEbits	set	137
   631  008C                     _PIE1bits	set	140
   632  0096                     _IOCBbits	set	150
   633  0081                     _OPTION_REGbits	set	129
   634  0087                     _TRISCbits	set	135
   635  0088                     _TRISDbits	set	136
   636  0086                     _TRISBbits	set	134
   637  0085                     _TRISAbits	set	133
   638  040D                     _T0CS	set	1037
   639  040B                     _PSA	set	1035
   640  0189                     _ANSELH	set	393
   641  0188                     _ANSEL	set	392
   642                           
   643                           	psect	cinit
   644  07E7                     start_initialization:	
   645                           ; #config settings
   646                           
   647  07E7                     __initialization:
   648                           
   649                           ; Clear objects allocated to BANK1
   650  07E7  1683               	bsf	3,5	;RP0=1, select bank1
   651  07E8  1303               	bcf	3,6	;RP1=0, select bank1
   652  07E9  01E7               	clrf	__pbssBANK1& (0+127)
   653  07EA  01E8               	clrf	(__pbssBANK1+1)& (0+127)
   654                           
   655                           ; Clear objects allocated to BANK3
   656  07EB  1783               	bsf	3,7	;select IRP bank2
   657  07EC  3090               	movlw	low __pbssBANK3
   658  07ED  0084               	movwf	4
   659  07EE  309C               	movlw	low (__pbssBANK3+12)
   660  07EF  120A  158A  2051  120A  118A  	fcall	clear_ram0
   661                           
   662                           ; Clear objects allocated to BANK2
   663  07F4  3010               	movlw	low __pbssBANK2
   664  07F5  0084               	movwf	4
   665  07F6  3060               	movlw	low (__pbssBANK2+80)
   666  07F7  120A  158A  2051  120A  118A  	fcall	clear_ram0
   667  07FC                     end_of_initialization:	
   668                           ;End of C runtime variable initialization code
   669                           
   670  07FC                     __end_of__initialization:
   671  07FC  0183               	clrf	3
   672  07FD  120A  118A  28BC   	ljmp	_main	;jump to C main() function
   673                           
   674                           	psect	bssBANK1
   675  00E7                     __pbssBANK1:
   676  00E7                     _errno:
   677  00E7                     	ds	2
   678                           
   679                           	psect	bssBANK3
   680  0190                     __pbssBANK3:
   681  0190                     _stepperA:
   682  0190                     	ds	12
   683                           
   684                           	psect	bssBANK2
   685  0110                     __pbssBANK2:
   686  0110                     _sBufferA:
   687  0110                     	ds	80
   688                           
   689                           	psect	clrtext
   690  0851                     clear_ram0:	
   691                           ;	Called with FSR containing the base address, and
   692                           ;	W with the last address+1
   693                           
   694  0851  0064               	clrwdt	;clear the watchdog before getting into this loop
   695  0852                     clrloop0:
   696  0852  0180               	clrf	0	;clear RAM location pointed to by FSR
   697  0853  0A84               	incf	4,f	;increment pointer
   698  0854  0604               	xorwf	4,w	;XOR with final address
   699  0855  1903               	btfsc	3,2	;have we reached the end yet?
   700  0856  3400               	retlw	0	;all done for this memory range, return
   701  0857  0604               	xorwf	4,w	;XOR again to restore value
   702  0858  2852               	goto	clrloop0	;do the next byte
   703                           
   704                           	psect	cstackBANK3
   705  019C                     __pcstackBANK3:
   706  019C                     ??_GBS_T2I_Config:
   707  019C                     ??_GBS_Interrupt_Enable:	
   708                           ; 1 bytes @ 0x0
   709                           
   710  019C                     ?_GBS_Timer2_Config:	
   711                           ; 1 bytes @ 0x0
   712                           
   713  019C                     ?___bmul:	
   714                           ; 1 bytes @ 0x0
   715                           
   716  019C                     ?___awmod:	
   717                           ; 1 bytes @ 0x0
   718                           
   719  019C                     GBS_T2I_Config@mode:	
   720                           ; 2 bytes @ 0x0
   721                           
   722  019C                     GBS_Timer2_Config@ckPS:	
   723                           ; 1 bytes @ 0x0
   724                           
   725  019C                     ___bmul@multiplicand:	
   726                           ; 1 bytes @ 0x0
   727                           
   728  019C                     ___awmod@divisor:	
   729                           ; 1 bytes @ 0x0
   730                           
   731                           
   732                           ; 2 bytes @ 0x0
   733  019C                     	ds	1
   734  019D                     ??_GBS_Interrupt_Init:
   735  019D                     ??___bmul:	
   736                           ; 1 bytes @ 0x1
   737                           
   738  019D                     GBS_Timer2_Config@outPS:	
   739                           ; 1 bytes @ 0x1
   740                           
   741  019D                     ___bmul@product:	
   742                           ; 1 bytes @ 0x1
   743                           
   744                           
   745                           ; 1 bytes @ 0x1
   746  019D                     	ds	1
   747  019E                     GBS_Timer2_Config@timVar:
   748  019E                     ___bmul@multiplier:	
   749                           ; 1 bytes @ 0x2
   750                           
   751  019E                     ___awmod@dividend:	
   752                           ; 1 bytes @ 0x2
   753                           
   754                           
   755                           ; 2 bytes @ 0x2
   756  019E                     	ds	1
   757  019F                     ??_GBS_Stepper_Buffer_Init:
   758  019F                     ??_GBS_Timer2_Config:	
   759                           ; 1 bytes @ 0x3
   760                           
   761                           
   762                           ; 1 bytes @ 0x3
   763  019F                     	ds	1
   764  01A0                     ??___awmod:
   765  01A0                     GBS_Timer2_Config@state:	
   766                           ; 1 bytes @ 0x4
   767                           
   768  01A0                     GBS_Stepper_Buffer_Init@sBufferX:	
   769                           ; 1 bytes @ 0x4
   770                           
   771  01A0                     ___awmod@counter:	
   772                           ; 1 bytes @ 0x4
   773                           
   774                           
   775                           ; 1 bytes @ 0x4
   776  01A0                     	ds	1
   777  01A1                     GBS_Stepper_Buffer_Init@i:
   778  01A1                     ___awmod@sign:	
   779                           ; 1 bytes @ 0x5
   780                           
   781                           
   782                           ; 1 bytes @ 0x5
   783  01A1                     	ds	1
   784  01A2                     ??_GBS_Stepper_Init:
   785  01A2                     ??_main:	
   786                           ; 1 bytes @ 0x6
   787                           
   788                           
   789                           ; 1 bytes @ 0x6
   790  01A2                     	ds	3
   791                           
   792                           	psect	cstackBANK1
   793  00A0                     __pcstackBANK1:
   794  00A0                     ??___fldiv:
   795                           
   796                           ; 1 bytes @ 0x0
   797  00A0                     	ds	5
   798  00A5                     ___fldiv@rem:
   799                           
   800                           ; 4 bytes @ 0x5
   801  00A5                     	ds	4
   802  00A9                     ___fldiv@sign:
   803                           
   804                           ; 1 bytes @ 0x9
   805  00A9                     	ds	1
   806  00AA                     ___fldiv@new_exp:
   807                           
   808                           ; 2 bytes @ 0xA
   809  00AA                     	ds	2
   810  00AC                     ___fldiv@grs:
   811                           
   812                           ; 4 bytes @ 0xC
   813  00AC                     	ds	4
   814  00B0                     ___fldiv@bexp:
   815                           
   816                           ; 1 bytes @ 0x10
   817  00B0                     	ds	1
   818  00B1                     ___fldiv@aexp:
   819                           
   820                           ; 1 bytes @ 0x11
   821  00B1                     	ds	1
   822  00B2                     ?___fltol:
   823  00B2                     ___fltol@f1:	
   824                           ; 4 bytes @ 0x12
   825                           
   826                           
   827                           ; 4 bytes @ 0x12
   828  00B2                     	ds	4
   829  00B6                     ?_GBS_Stepper_Exe:
   830  00B6                     GBS_Stepper_Exe@sBufferX:	
   831                           ; 1 bytes @ 0x16
   832                           
   833                           
   834                           ; 1 bytes @ 0x16
   835  00B6                     	ds	1
   836  00B7                     ??_GBS_Stepper_Exe:
   837                           
   838                           ; 1 bytes @ 0x17
   839  00B7                     	ds	15
   840  00C6                     _GBS_Stepper_Exe$1422:
   841                           
   842                           ; 4 bytes @ 0x26
   843  00C6                     	ds	4
   844  00CA                     _GBS_Stepper_Exe$1423:
   845                           
   846                           ; 4 bytes @ 0x2A
   847  00CA                     	ds	4
   848  00CE                     _GBS_Stepper_Exe$1424:
   849                           
   850                           ; 4 bytes @ 0x2E
   851  00CE                     	ds	4
   852  00D2                     _GBS_Stepper_Exe$1425:
   853                           
   854                           ; 4 bytes @ 0x32
   855  00D2                     	ds	4
   856  00D6                     _GBS_Stepper_Exe$1426:
   857                           
   858                           ; 4 bytes @ 0x36
   859  00D6                     	ds	4
   860  00DA                     _GBS_Stepper_Exe$1427:
   861                           
   862                           ; 4 bytes @ 0x3A
   863  00DA                     	ds	4
   864  00DE                     _GBS_Stepper_Exe$1428:
   865                           
   866                           ; 4 bytes @ 0x3E
   867  00DE                     	ds	4
   868  00E2                     GBS_Stepper_Exe@stepperX:
   869                           
   870                           ; 1 bytes @ 0x42
   871  00E2                     	ds	1
   872  00E3                     ??_ISR:
   873                           
   874                           ; 1 bytes @ 0x43
   875  00E3                     	ds	4
   876                           
   877                           	psect	cstackCOMMON
   878  0071                     __pcstackCOMMON:
   879  0071                     ?_GBS_Interrupt_Init:
   880  0071                     ?_GBS_Stepper_Init:	
   881                           ; 1 bytes @ 0x0
   882                           
   883  0071                     ?_GBS_T2I_Config:	
   884                           ; 1 bytes @ 0x0
   885                           
   886  0071                     ?_GBS_Interrupt_Enable:	
   887                           ; 1 bytes @ 0x0
   888                           
   889  0071                     ?_T2I_ISR:	
   890                           ; 1 bytes @ 0x0
   891                           
   892  0071                     ?_GBS_Stepper_Buffer_Init:	
   893                           ; 1 bytes @ 0x0
   894                           
   895  0071                     ?_ISR:	
   896                           ; 1 bytes @ 0x0
   897                           
   898  0071                     ?_GBS_Stepper_Update:	
   899                           ; 1 bytes @ 0x0
   900                           
   901  0071                     ??_GBS_Stepper_Update:	
   902                           ; 1 bytes @ 0x0
   903                           
   904  0071                     ?_main:	
   905                           ; 1 bytes @ 0x0
   906                           
   907  0071                     ?i1___awmod:	
   908                           ; 2 bytes @ 0x0
   909                           
   910  0071                     i1___awmod@divisor:	
   911                           ; 2 bytes @ 0x0
   912                           
   913                           
   914                           ; 2 bytes @ 0x0
   915  0071                     	ds	2
   916  0073                     i1___awmod@dividend:
   917                           
   918                           ; 2 bytes @ 0x2
   919  0073                     	ds	2
   920  0075                     ??i1___awmod:
   921  0075                     i1___awmod@counter:	
   922                           ; 1 bytes @ 0x4
   923                           
   924                           
   925                           ; 1 bytes @ 0x4
   926  0075                     	ds	1
   927  0076                     i1___awmod@sign:
   928                           
   929                           ; 1 bytes @ 0x5
   930  0076                     	ds	1
   931  0077                     ?i1___bmul:
   932  0077                     i1___bmul@multiplicand:	
   933                           ; 1 bytes @ 0x6
   934                           
   935                           
   936                           ; 1 bytes @ 0x6
   937  0077                     	ds	1
   938  0078                     ??i1___bmul:
   939  0078                     i1___bmul@product:	
   940                           ; 1 bytes @ 0x7
   941                           
   942                           
   943                           ; 1 bytes @ 0x7
   944  0078                     	ds	1
   945  0079                     i1___bmul@multiplier:
   946                           
   947                           ; 1 bytes @ 0x8
   948  0079                     	ds	1
   949  007A                     ??___lldiv:
   950                           
   951                           ; 1 bytes @ 0x9
   952  007A                     	ds	1
   953  007B                     ??___lmul:
   954                           
   955                           ; 1 bytes @ 0xA
   956  007B                     	ds	1
   957  007C                     ___fltol@sign1:
   958                           
   959                           ; 1 bytes @ 0xB
   960  007C                     	ds	1
   961  007D                     ___fltol@exp1:
   962                           
   963                           ; 1 bytes @ 0xC
   964  007D                     	ds	1
   965  007E                     ??_T2I_ISR:
   966                           
   967                           	psect	cstackBANK0
   968  0020                     __pcstackBANK0:	
   969                           ; 1 bytes @ 0xD
   970                           
   971  0020                     ?___lldiv:
   972  0020                     ___lldiv@divisor:	
   973                           ; 4 bytes @ 0x0
   974                           
   975                           
   976                           ; 4 bytes @ 0x0
   977  0020                     	ds	4
   978  0024                     ___lldiv@dividend:
   979                           
   980                           ; 4 bytes @ 0x4
   981  0024                     	ds	4
   982  0028                     ___lldiv@quotient:
   983                           
   984                           ; 4 bytes @ 0x8
   985  0028                     	ds	4
   986  002C                     ___lldiv@counter:
   987                           
   988                           ; 1 bytes @ 0xC
   989  002C                     	ds	1
   990  002D                     ?___lmul:
   991  002D                     ___lmul@multiplier:	
   992                           ; 4 bytes @ 0xD
   993                           
   994                           
   995                           ; 4 bytes @ 0xD
   996  002D                     	ds	4
   997  0031                     ___lmul@multiplicand:
   998                           
   999                           ; 4 bytes @ 0x11
  1000  0031                     	ds	4
  1001  0035                     ___lmul@product:
  1002                           
  1003                           ; 4 bytes @ 0x15
  1004  0035                     	ds	4
  1005  0039                     ?___xxtofl:
  1006  0039                     ___xxtofl@val:	
  1007                           ; 4 bytes @ 0x19
  1008                           
  1009                           
  1010                           ; 4 bytes @ 0x19
  1011  0039                     	ds	4
  1012  003D                     ??___xxtofl:
  1013                           
  1014                           ; 1 bytes @ 0x1D
  1015  003D                     	ds	4
  1016  0041                     ___xxtofl@sign:
  1017                           
  1018                           ; 1 bytes @ 0x21
  1019  0041                     	ds	1
  1020  0042                     ___xxtofl@exp:
  1021                           
  1022                           ; 1 bytes @ 0x22
  1023  0042                     	ds	1
  1024  0043                     ___xxtofl@arg:
  1025                           
  1026                           ; 4 bytes @ 0x23
  1027  0043                     	ds	4
  1028  0047                     ?_sqrt:
  1029  0047                     sqrt@a:	
  1030                           ; 4 bytes @ 0x27
  1031                           
  1032                           
  1033                           ; 4 bytes @ 0x27
  1034  0047                     	ds	4
  1035  004B                     ??_sqrt:
  1036                           
  1037                           ; 1 bytes @ 0x2B
  1038  004B                     	ds	4
  1039  004F                     sqrt@sign:
  1040                           
  1041                           ; 1 bytes @ 0x2F
  1042  004F                     	ds	1
  1043  0050                     sqrt@i:
  1044                           
  1045                           ; 1 bytes @ 0x30
  1046  0050                     	ds	1
  1047  0051                     sqrt@tfrac:
  1048                           
  1049                           ; 4 bytes @ 0x31
  1050  0051                     	ds	4
  1051  0055                     sqrt@p:
  1052                           
  1053                           ; 1 bytes @ 0x35
  1054  0055                     	ds	1
  1055  0056                     sqrt@grs:
  1056                           
  1057                           ; 4 bytes @ 0x36
  1058  0056                     	ds	4
  1059  005A                     sqrt@exp:
  1060                           
  1061                           ; 2 bytes @ 0x3A
  1062  005A                     	ds	2
  1063  005C                     sqrt@root:
  1064                           
  1065                           ; 4 bytes @ 0x3C
  1066  005C                     	ds	4
  1067  0060                     sqrt@frac:
  1068                           
  1069                           ; 4 bytes @ 0x40
  1070  0060                     	ds	4
  1071  0064                     ?___fldiv:
  1072  0064                     ___fldiv@a:	
  1073                           ; 4 bytes @ 0x44
  1074                           
  1075                           
  1076                           ; 4 bytes @ 0x44
  1077  0064                     	ds	4
  1078  0068                     ___fldiv@b:
  1079                           
  1080                           ; 4 bytes @ 0x48
  1081  0068                     	ds	4
  1082  006C                     ??___fltol:
  1083                           
  1084                           ; 1 bytes @ 0x4C
  1085  006C                     	ds	4
  1086                           
  1087                           	psect	maintext
  1088  00BC                     __pmaintext:	
  1089 ;;
  1090 ;;Main: autosize = 0, tempsize = 3, incstack = 0, save=0
  1091 ;;
  1092 ;; *************** function _main *****************
  1093 ;; Defined at:
  1094 ;;		line 9 in file "../test.c"
  1095 ;; Parameters:    Size  Location     Type
  1096 ;;		None
  1097 ;; Auto vars:     Size  Location     Type
  1098 ;;		None
  1099 ;; Return value:  Size  Location     Type
  1100 ;;                  2   14[None  ] int 
  1101 ;; Registers used:
  1102 ;;		wreg, fsr0l, fsr0h, status,2, status,0, btemp+1, pclath, cstack
  1103 ;; Tracked objects:
  1104 ;;		On entry : B00/0
  1105 ;;		On exit  : 0/0
  1106 ;;		Unchanged: 0/0
  1107 ;; Data sizes:     COMMON   BANK0   BANK1   BANK3   BANK2
  1108 ;;      Params:         0       0       0       0       0
  1109 ;;      Locals:         0       0       0       0       0
  1110 ;;      Temps:          0       0       0       3       0
  1111 ;;      Totals:         0       0       0       3       0
  1112 ;;Total ram usage:        3 bytes
  1113 ;; Hardware stack levels required when called:    7
  1114 ;; This function calls:
  1115 ;;		_GBS_Interrupt_Init
  1116 ;;		_GBS_Stepper_Init
  1117 ;;		___awmod
  1118 ;;		___bmul
  1119 ;; This function is called by:
  1120 ;;		Startup code after reset
  1121 ;; This function uses a non-reentrant model
  1122 ;;
  1123                           
  1124                           
  1125                           ;psect for function _main
  1126  00BC                     _main:
  1127  00BC                     l2148:	
  1128                           ;incstack = 0
  1129                           ; Regs used in _main: [wreg-fsr0h+status,2+status,0+btemp+1+pclath+cstack]
  1130                           
  1131                           
  1132                           ;../test.c: 11:     GBS_Interrupt_Init();
  1133  00BC  120A  158A  2059  120A  118A  	fcall	_GBS_Interrupt_Init
  1134  00C1                     l2150:
  1135                           
  1136                           ;../test.c: 12:     GBS_Stepper_Init();
  1137  00C1  120A  158A  2108  120A  118A  	fcall	_GBS_Stepper_Init
  1138  00C6                     l2152:
  1139                           
  1140                           ;../test.c: 15:     {;../test.c: 16:         if (sBufferA.buffer[sBufferA.tail].flag == 
      +                          1)
  1141  00C6  301A               	movlw	26
  1142  00C7  00FF               	movwf	btemp+1
  1143  00C8  087F               	movf	btemp+1,w
  1144  00C9  1683               	bsf	3,5	;RP0=1, select bank3
  1145  00CA  1703               	bsf	3,6	;RP1=1, select bank3
  1146  00CB  009C               	movwf	___bmul@multiplicand^(0+384)
  1147  00CC  1283               	bcf	3,5	;RP0=0, select bank2
  1148  00CD  1703               	bsf	3,6	;RP1=1, select bank2
  1149  00CE  085F               	movf	(_sBufferA^(0+256)+79),w
  1150  00CF  120A  158A  207A  120A  118A  	fcall	___bmul
  1151  00D4  3E29               	addlw	(low ((_sBufferA| (0+256)+25)))& (0+255)
  1152  00D5  0084               	movwf	4
  1153  00D6  1783               	bsf	3,7	;select IRP bank2
  1154  00D7  0300               	decf	0,w
  1155  00D8  1D03               	btfss	3,2
  1156  00D9  28DB               	goto	u2561
  1157  00DA  28DC               	goto	u2560
  1158  00DB                     u2561:
  1159  00DB  28C6               	goto	l2152
  1160  00DC                     u2560:
  1161  00DC                     l2154:
  1162                           
  1163                           ;../test.c: 17:         {;../test.c: 18:             sBufferA.buffer[sBufferA.tail].acc 
      +                          = 10;
  1164  00DC  301A               	movlw	26
  1165  00DD  00FF               	movwf	btemp+1
  1166  00DE  087F               	movf	btemp+1,w
  1167  00DF  1683               	bsf	3,5	;RP0=1, select bank3
  1168  00E0  1703               	bsf	3,6	;RP1=1, select bank3
  1169  00E1  009C               	movwf	___bmul@multiplicand^(0+384)
  1170  00E2  1283               	bcf	3,5	;RP0=0, select bank2
  1171  00E3  1703               	bsf	3,6	;RP1=1, select bank2
  1172  00E4  085F               	movf	(_sBufferA^(0+256)+79),w
  1173  00E5  120A  158A  207A  120A  118A  	fcall	___bmul
  1174  00EA  3E1D               	addlw	(low ((_sBufferA| (0+256)+13)))& (0+255)
  1175  00EB  0084               	movwf	4
  1176  00EC  300A               	movlw	10
  1177  00ED  1783               	bsf	3,7	;select IRP bank2
  1178  00EE  0080               	movwf	0
  1179  00EF  0A84               	incf	4,f
  1180  00F0  3000               	movlw	0
  1181  00F1  0080               	movwf	0
  1182  00F2  0A84               	incf	4,f
  1183  00F3  3000               	movlw	0
  1184  00F4  0080               	movwf	0
  1185  00F5  0A84               	incf	4,f
  1186  00F6  3000               	movlw	0
  1187  00F7  0080               	movwf	0
  1188                           
  1189                           ;../test.c: 19:             sBufferA.buffer[sBufferA.tail].acc_until = 50;
  1190  00F8  301A               	movlw	26
  1191  00F9  00FF               	movwf	btemp+1
  1192  00FA  087F               	movf	btemp+1,w
  1193  00FB  1683               	bsf	3,5	;RP0=1, select bank3
  1194  00FC  1703               	bsf	3,6	;RP1=1, select bank3
  1195  00FD  009C               	movwf	___bmul@multiplicand^(0+384)
  1196  00FE  1283               	bcf	3,5	;RP0=0, select bank2
  1197  00FF  1703               	bsf	3,6	;RP1=1, select bank2
  1198  0100  085F               	movf	(_sBufferA^(0+256)+79),w
  1199  0101  120A  158A  207A  120A  118A  	fcall	___bmul
  1200  0106  3E11               	addlw	(low ((_sBufferA| (0+256)+1)))& (0+255)
  1201  0107  0084               	movwf	4
  1202  0108  3032               	movlw	50
  1203  0109  1783               	bsf	3,7	;select IRP bank2
  1204  010A  0080               	movwf	0
  1205  010B  0A84               	incf	4,f
  1206  010C  3000               	movlw	0
  1207  010D  0080               	movwf	0
  1208  010E  0A84               	incf	4,f
  1209  010F  3000               	movlw	0
  1210  0110  0080               	movwf	0
  1211  0111  0A84               	incf	4,f
  1212  0112  3000               	movlw	0
  1213  0113  0080               	movwf	0
  1214                           
  1215                           ;../test.c: 20:             sBufferA.buffer[sBufferA.tail].dec = 10;
  1216  0114  301A               	movlw	26
  1217  0115  00FF               	movwf	btemp+1
  1218  0116  087F               	movf	btemp+1,w
  1219  0117  1683               	bsf	3,5	;RP0=1, select bank3
  1220  0118  1703               	bsf	3,6	;RP1=1, select bank3
  1221  0119  009C               	movwf	___bmul@multiplicand^(0+384)
  1222  011A  1283               	bcf	3,5	;RP0=0, select bank2
  1223  011B  1703               	bsf	3,6	;RP1=1, select bank2
  1224  011C  085F               	movf	(_sBufferA^(0+256)+79),w
  1225  011D  120A  158A  207A  120A  118A  	fcall	___bmul
  1226  0122  3E21               	addlw	(low ((_sBufferA| (0+256)+17)))& (0+255)
  1227  0123  0084               	movwf	4
  1228  0124  300A               	movlw	10
  1229  0125  1783               	bsf	3,7	;select IRP bank2
  1230  0126  0080               	movwf	0
  1231  0127  0A84               	incf	4,f
  1232  0128  3000               	movlw	0
  1233  0129  0080               	movwf	0
  1234  012A  0A84               	incf	4,f
  1235  012B  3000               	movlw	0
  1236  012C  0080               	movwf	0
  1237  012D  0A84               	incf	4,f
  1238  012E  3000               	movlw	0
  1239  012F  0080               	movwf	0
  1240                           
  1241                           ;../test.c: 21:             sBufferA.buffer[sBufferA.tail].dec_after = 50;
  1242  0130  301A               	movlw	26
  1243  0131  00FF               	movwf	btemp+1
  1244  0132  087F               	movf	btemp+1,w
  1245  0133  1683               	bsf	3,5	;RP0=1, select bank3
  1246  0134  1703               	bsf	3,6	;RP1=1, select bank3
  1247  0135  009C               	movwf	___bmul@multiplicand^(0+384)
  1248  0136  1283               	bcf	3,5	;RP0=0, select bank2
  1249  0137  1703               	bsf	3,6	;RP1=1, select bank2
  1250  0138  085F               	movf	(_sBufferA^(0+256)+79),w
  1251  0139  120A  158A  207A  120A  118A  	fcall	___bmul
  1252  013E  3E15               	addlw	(low ((_sBufferA| (0+256)+5)))& (0+255)
  1253  013F  0084               	movwf	4
  1254  0140  3032               	movlw	50
  1255  0141  1783               	bsf	3,7	;select IRP bank2
  1256  0142  0080               	movwf	0
  1257  0143  0A84               	incf	4,f
  1258  0144  3000               	movlw	0
  1259  0145  0080               	movwf	0
  1260  0146  0A84               	incf	4,f
  1261  0147  3000               	movlw	0
  1262  0148  0080               	movwf	0
  1263  0149  0A84               	incf	4,f
  1264  014A  3000               	movlw	0
  1265  014B  0080               	movwf	0
  1266                           
  1267                           ;../test.c: 22:             sBufferA.buffer[sBufferA.tail].dec_until = 150;
  1268  014C  301A               	movlw	26
  1269  014D  00FF               	movwf	btemp+1
  1270  014E  087F               	movf	btemp+1,w
  1271  014F  1683               	bsf	3,5	;RP0=1, select bank3
  1272  0150  1703               	bsf	3,6	;RP1=1, select bank3
  1273  0151  009C               	movwf	___bmul@multiplicand^(0+384)
  1274  0152  1283               	bcf	3,5	;RP0=0, select bank2
  1275  0153  1703               	bsf	3,6	;RP1=1, select bank2
  1276  0154  085F               	movf	(_sBufferA^(0+256)+79),w
  1277  0155  120A  158A  207A  120A  118A  	fcall	___bmul
  1278  015A  3E19               	addlw	(low ((_sBufferA| (0+256)+9)))& (0+255)
  1279  015B  0084               	movwf	4
  1280  015C  3096               	movlw	150
  1281  015D  1783               	bsf	3,7	;select IRP bank2
  1282  015E  0080               	movwf	0
  1283  015F  0A84               	incf	4,f
  1284  0160  3000               	movlw	0
  1285  0161  0080               	movwf	0
  1286  0162  0A84               	incf	4,f
  1287  0163  3000               	movlw	0
  1288  0164  0080               	movwf	0
  1289  0165  0A84               	incf	4,f
  1290  0166  3000               	movlw	0
  1291  0167  0080               	movwf	0
  1292                           
  1293                           ;../test.c: 23:             sBufferA.buffer[sBufferA.tail].dir = 0;
  1294  0168  301A               	movlw	26
  1295  0169  00FF               	movwf	btemp+1
  1296  016A  087F               	movf	btemp+1,w
  1297  016B  1683               	bsf	3,5	;RP0=1, select bank3
  1298  016C  1703               	bsf	3,6	;RP1=1, select bank3
  1299  016D  009C               	movwf	___bmul@multiplicand^(0+384)
  1300  016E  1283               	bcf	3,5	;RP0=0, select bank2
  1301  016F  1703               	bsf	3,6	;RP1=1, select bank2
  1302  0170  085F               	movf	(_sBufferA^(0+256)+79),w
  1303  0171  120A  158A  207A  120A  118A  	fcall	___bmul
  1304  0176  3E10               	addlw	(low (_sBufferA| (0+256)))& (0+255)
  1305  0177  0084               	movwf	4
  1306  0178  1783               	bsf	3,7	;select IRP bank2
  1307  0179  0180               	clrf	0
  1308                           
  1309                           ;../test.c: 24:             sBufferA.buffer[sBufferA.tail].flag = 2;
  1310  017A  301A               	movlw	26
  1311  017B  00FF               	movwf	btemp+1
  1312  017C  087F               	movf	btemp+1,w
  1313  017D  1683               	bsf	3,5	;RP0=1, select bank3
  1314  017E  1703               	bsf	3,6	;RP1=1, select bank3
  1315  017F  009C               	movwf	___bmul@multiplicand^(0+384)
  1316  0180  1283               	bcf	3,5	;RP0=0, select bank2
  1317  0181  1703               	bsf	3,6	;RP1=1, select bank2
  1318  0182  085F               	movf	(_sBufferA^(0+256)+79),w
  1319  0183  120A  158A  207A  120A  118A  	fcall	___bmul
  1320  0188  3E29               	addlw	(low ((_sBufferA| (0+256)+25)))& (0+255)
  1321  0189  0084               	movwf	4
  1322  018A  3002               	movlw	2
  1323  018B  00FF               	movwf	btemp+1
  1324  018C  087F               	movf	btemp+1,w
  1325  018D  1783               	bsf	3,7	;select IRP bank2
  1326  018E  0080               	movwf	0
  1327                           
  1328                           ;../test.c: 25:             sBufferA.buffer[sBufferA.tail].maxSpeed = 500;
  1329  018F  301A               	movlw	26
  1330  0190  00FF               	movwf	btemp+1
  1331  0191  087F               	movf	btemp+1,w
  1332  0192  1683               	bsf	3,5	;RP0=1, select bank3
  1333  0193  1703               	bsf	3,6	;RP1=1, select bank3
  1334  0194  009C               	movwf	___bmul@multiplicand^(0+384)
  1335  0195  1283               	bcf	3,5	;RP0=0, select bank2
  1336  0196  1703               	bsf	3,6	;RP1=1, select bank2
  1337  0197  085F               	movf	(_sBufferA^(0+256)+79),w
  1338  0198  120A  158A  207A  120A  118A  	fcall	___bmul
  1339  019D  3E25               	addlw	(low ((_sBufferA| (0+256)+21)))& (0+255)
  1340  019E  0084               	movwf	4
  1341  019F  30F4               	movlw	244
  1342  01A0  1783               	bsf	3,7	;select IRP bank2
  1343  01A1  0080               	movwf	0
  1344  01A2  0A84               	incf	4,f
  1345  01A3  3001               	movlw	1
  1346  01A4  0080               	movwf	0
  1347  01A5  0A84               	incf	4,f
  1348  01A6  3000               	movlw	0
  1349  01A7  0080               	movwf	0
  1350  01A8  0A84               	incf	4,f
  1351  01A9  3000               	movlw	0
  1352  01AA  0080               	movwf	0
  1353  01AB                     l2156:
  1354                           
  1355                           ;../test.c: 26:             sBufferA.tail = (sBufferA.tail+1)%3;
  1356  01AB  3003               	movlw	3
  1357  01AC  1683               	bsf	3,5	;RP0=1, select bank3
  1358  01AD  1703               	bsf	3,6	;RP1=1, select bank3
  1359  01AE  009C               	movwf	___awmod@divisor^(0+384)
  1360  01AF  3000               	movlw	0
  1361  01B0  009D               	movwf	(___awmod@divisor^(0+384)+1)
  1362  01B1  1283               	bcf	3,5	;RP0=0, select bank2
  1363  01B2  1703               	bsf	3,6	;RP1=1, select bank2
  1364  01B3  085F               	movf	(_sBufferA^(0+256)+79),w
  1365  01B4  3E01               	addlw	1
  1366  01B5  1683               	bsf	3,5	;RP0=1, select bank3
  1367  01B6  1703               	bsf	3,6	;RP1=1, select bank3
  1368  01B7  009E               	movwf	___awmod@dividend^(0+384)
  1369  01B8  3000               	movlw	0
  1370  01B9  1803               	skipnc
  1371  01BA  3001               	movlw	1
  1372  01BB  009F               	movwf	(___awmod@dividend^(0+384)+1)
  1373  01BC  120A  158A  220C  120A  118A  	fcall	___awmod
  1374  01C1  1683               	bsf	3,5	;RP0=1, select bank3
  1375  01C2  1703               	bsf	3,6	;RP1=1, select bank3
  1376  01C3  081C               	movf	?___awmod^(0+384),w
  1377  01C4  00FF               	movwf	btemp+1
  1378  01C5  087F               	movf	btemp+1,w
  1379  01C6  1283               	bcf	3,5	;RP0=0, select bank2
  1380  01C7  1703               	bsf	3,6	;RP1=1, select bank2
  1381  01C8  00DF               	movwf	(_sBufferA^(0+256)+79)
  1382  01C9                     l2158:
  1383                           
  1384                           ;../test.c: 29:             _delay((unsigned long)((100)*(11059200/4000.0)));
  1385  01C9  3002               	movlw	2
  1386  01CA  1683               	bsf	3,5	;RP0=1, select bank3
  1387  01CB  1703               	bsf	3,6	;RP1=1, select bank3
  1388  01CC  00A4               	movwf	(??_main^(0+384)+2)
  1389  01CD  3068               	movlw	104
  1390  01CE  00A3               	movwf	(??_main^(0+384)+1)
  1391  01CF  300C               	movlw	12
  1392  01D0  00A2               	movwf	??_main^(0+384)
  1393  01D1                     u2627:
  1394  01D1  0BA2               	decfsz	??_main^(0+384),f
  1395  01D2  29D1               	goto	u2627
  1396  01D3  0BA3               	decfsz	(??_main^(0+384)+1),f
  1397  01D4  29D1               	goto	u2627
  1398  01D5  0BA4               	decfsz	(??_main^(0+384)+2),f
  1399  01D6  29D1               	goto	u2627
  1400  01D7  0000               	nop
  1401  01D8  28C6               	goto	l2152
  1402  01D9  120A  118A  2816   	ljmp	start
  1403  01DC                     __end_of_main:
  1404                           
  1405                           	psect	text1
  1406  0A0C                     __ptext1:	
  1407 ;; *************** function ___awmod *****************
  1408 ;; Defined at:
  1409 ;;		line 5 in file "C:\Program Files\Microchip\xc8\v2.20\pic\sources\c90\common\awmod.c"
  1410 ;; Parameters:    Size  Location     Type
  1411 ;;  divisor         2    0[BANK3 ] int 
  1412 ;;  dividend        2    2[BANK3 ] int 
  1413 ;; Auto vars:     Size  Location     Type
  1414 ;;  sign            1    5[BANK3 ] unsigned char 
  1415 ;;  counter         1    4[BANK3 ] unsigned char 
  1416 ;; Return value:  Size  Location     Type
  1417 ;;                  2    0[BANK3 ] int 
  1418 ;; Registers used:
  1419 ;;		wreg, status,2, status,0, btemp+1
  1420 ;; Tracked objects:
  1421 ;;		On entry : 0/0
  1422 ;;		On exit  : 0/0
  1423 ;;		Unchanged: 0/0
  1424 ;; Data sizes:     COMMON   BANK0   BANK1   BANK3   BANK2
  1425 ;;      Params:         0       0       0       4       0
  1426 ;;      Locals:         0       0       0       2       0
  1427 ;;      Temps:          0       0       0       0       0
  1428 ;;      Totals:         0       0       0       6       0
  1429 ;;Total ram usage:        6 bytes
  1430 ;; Hardware stack levels used:    1
  1431 ;; Hardware stack levels required when called:    4
  1432 ;; This function calls:
  1433 ;;		Nothing
  1434 ;; This function is called by:
  1435 ;;		_main
  1436 ;;		_GBS_Stepper_Planner
  1437 ;; This function uses a non-reentrant model
  1438 ;;
  1439                           
  1440                           
  1441                           ;psect for function ___awmod
  1442  0A0C                     ___awmod:
  1443  0A0C                     l2110:	
  1444                           ;incstack = 0
  1445                           ; Regs used in ___awmod: [wreg+status,2+status,0+btemp+1]
  1446                           
  1447  0A0C  1683               	bsf	3,5	;RP0=1, select bank3
  1448  0A0D  1703               	bsf	3,6	;RP1=1, select bank3
  1449  0A0E  01A1               	clrf	___awmod@sign^(0+384)
  1450  0A0F                     l2112:
  1451  0A0F  1F9F               	btfss	(___awmod@dividend+1)^(0+384),7
  1452  0A10  2A12               	goto	u2471
  1453  0A11  2A13               	goto	u2470
  1454  0A12                     u2471:
  1455  0A12  2A1A               	goto	l2118
  1456  0A13                     u2470:
  1457  0A13                     l2114:
  1458  0A13  099E               	comf	___awmod@dividend^(0+384),f
  1459  0A14  099F               	comf	(___awmod@dividend+1)^(0+384),f
  1460  0A15  0A9E               	incf	___awmod@dividend^(0+384),f
  1461  0A16  1903               	skipnz
  1462  0A17  0A9F               	incf	(___awmod@dividend+1)^(0+384),f
  1463  0A18                     l2116:
  1464  0A18  01A1               	clrf	___awmod@sign^(0+384)
  1465  0A19  0AA1               	incf	___awmod@sign^(0+384),f
  1466  0A1A                     l2118:
  1467  0A1A  1F9D               	btfss	(___awmod@divisor+1)^(0+384),7
  1468  0A1B  2A1D               	goto	u2481
  1469  0A1C  2A1E               	goto	u2480
  1470  0A1D                     u2481:
  1471  0A1D  2A23               	goto	l2122
  1472  0A1E                     u2480:
  1473  0A1E                     l2120:
  1474  0A1E  099C               	comf	___awmod@divisor^(0+384),f
  1475  0A1F  099D               	comf	(___awmod@divisor+1)^(0+384),f
  1476  0A20  0A9C               	incf	___awmod@divisor^(0+384),f
  1477  0A21  1903               	skipnz
  1478  0A22  0A9D               	incf	(___awmod@divisor+1)^(0+384),f
  1479  0A23                     l2122:
  1480  0A23  081C               	movf	___awmod@divisor^(0+384),w
  1481  0A24  041D               	iorwf	(___awmod@divisor+1)^(0+384),w
  1482  0A25  1903               	btfsc	3,2
  1483  0A26  2A28               	goto	u2491
  1484  0A27  2A29               	goto	u2490
  1485  0A28                     u2491:
  1486  0A28  2A58               	goto	l2140
  1487  0A29                     u2490:
  1488  0A29                     l2124:
  1489  0A29  01A0               	clrf	___awmod@counter^(0+384)
  1490  0A2A  0AA0               	incf	___awmod@counter^(0+384),f
  1491  0A2B  2A37               	goto	l2130
  1492  0A2C                     l2126:
  1493  0A2C  3001               	movlw	1
  1494  0A2D                     u2505:
  1495  0A2D  1003               	clrc
  1496  0A2E  0D9C               	rlf	___awmod@divisor^(0+384),f
  1497  0A2F  0D9D               	rlf	(___awmod@divisor+1)^(0+384),f
  1498  0A30  3EFF               	addlw	-1
  1499  0A31  1D03               	skipz
  1500  0A32  2A2D               	goto	u2505
  1501  0A33                     l2128:
  1502  0A33  3001               	movlw	1
  1503  0A34  00FF               	movwf	btemp+1
  1504  0A35  087F               	movf	btemp+1,w
  1505  0A36  07A0               	addwf	___awmod@counter^(0+384),f
  1506  0A37                     l2130:
  1507  0A37  1F9D               	btfss	(___awmod@divisor+1)^(0+384),7
  1508  0A38  2A3A               	goto	u2511
  1509  0A39  2A3B               	goto	u2510
  1510  0A3A                     u2511:
  1511  0A3A  2A2C               	goto	l2126
  1512  0A3B                     u2510:
  1513  0A3B                     l2132:
  1514  0A3B  081D               	movf	(___awmod@divisor+1)^(0+384),w
  1515  0A3C  021F               	subwf	(___awmod@dividend+1)^(0+384),w
  1516  0A3D  1D03               	skipz
  1517  0A3E  2A41               	goto	u2525
  1518  0A3F  081C               	movf	___awmod@divisor^(0+384),w
  1519  0A40  021E               	subwf	___awmod@dividend^(0+384),w
  1520  0A41                     u2525:
  1521  0A41  1C03               	skipc
  1522  0A42  2A44               	goto	u2521
  1523  0A43  2A45               	goto	u2520
  1524  0A44                     u2521:
  1525  0A44  2A4B               	goto	l2136
  1526  0A45                     u2520:
  1527  0A45                     l2134:
  1528  0A45  081C               	movf	___awmod@divisor^(0+384),w
  1529  0A46  029E               	subwf	___awmod@dividend^(0+384),f
  1530  0A47  081D               	movf	(___awmod@divisor+1)^(0+384),w
  1531  0A48  1C03               	skipc
  1532  0A49  039F               	decf	(___awmod@dividend+1)^(0+384),f
  1533  0A4A  029F               	subwf	(___awmod@dividend+1)^(0+384),f
  1534  0A4B                     l2136:
  1535  0A4B  3001               	movlw	1
  1536  0A4C                     u2535:
  1537  0A4C  1003               	clrc
  1538  0A4D  0C9D               	rrf	(___awmod@divisor+1)^(0+384),f
  1539  0A4E  0C9C               	rrf	___awmod@divisor^(0+384),f
  1540  0A4F  3EFF               	addlw	-1
  1541  0A50  1D03               	skipz
  1542  0A51  2A4C               	goto	u2535
  1543  0A52                     l2138:
  1544  0A52  3001               	movlw	1
  1545  0A53  02A0               	subwf	___awmod@counter^(0+384),f
  1546  0A54  1D03               	btfss	3,2
  1547  0A55  2A57               	goto	u2541
  1548  0A56  2A58               	goto	u2540
  1549  0A57                     u2541:
  1550  0A57  2A3B               	goto	l2132
  1551  0A58                     u2540:
  1552  0A58                     l2140:
  1553  0A58  0821               	movf	___awmod@sign^(0+384),w
  1554  0A59  1903               	btfsc	3,2
  1555  0A5A  2A5C               	goto	u2551
  1556  0A5B  2A5D               	goto	u2550
  1557  0A5C                     u2551:
  1558  0A5C  2A62               	goto	l2144
  1559  0A5D                     u2550:
  1560  0A5D                     l2142:
  1561  0A5D  099E               	comf	___awmod@dividend^(0+384),f
  1562  0A5E  099F               	comf	(___awmod@dividend+1)^(0+384),f
  1563  0A5F  0A9E               	incf	___awmod@dividend^(0+384),f
  1564  0A60  1903               	skipnz
  1565  0A61  0A9F               	incf	(___awmod@dividend+1)^(0+384),f
  1566  0A62                     l2144:
  1567  0A62  081F               	movf	(___awmod@dividend+1)^(0+384),w
  1568  0A63  009D               	movwf	(?___awmod+1)^(0+384)
  1569  0A64  081E               	movf	___awmod@dividend^(0+384),w
  1570  0A65  009C               	movwf	?___awmod^(0+384)
  1571  0A66                     l448:
  1572  0A66  0008               	return
  1573  0A67                     __end_of___awmod:
  1574                           
  1575                           	psect	text2
  1576  0908                     __ptext2:	
  1577 ;; *************** function _GBS_Stepper_Init *****************
  1578 ;; Defined at:
  1579 ;;		line 6 in file "../gbs8/driver/scr/gbs8_stepper.c"
  1580 ;; Parameters:    Size  Location     Type
  1581 ;;		None
  1582 ;; Auto vars:     Size  Location     Type
  1583 ;;		None
  1584 ;; Return value:  Size  Location     Type
  1585 ;;                  1    wreg      void 
  1586 ;; Registers used:
  1587 ;;		wreg, fsr0l, fsr0h, status,2, status,0, btemp+1, pclath, cstack
  1588 ;; Tracked objects:
  1589 ;;		On entry : 0/0
  1590 ;;		On exit  : 0/0
  1591 ;;		Unchanged: 0/0
  1592 ;; Data sizes:     COMMON   BANK0   BANK1   BANK3   BANK2
  1593 ;;      Params:         0       0       0       0       0
  1594 ;;      Locals:         0       0       0       0       0
  1595 ;;      Temps:          0       0       0       0       0
  1596 ;;      Totals:         0       0       0       0       0
  1597 ;;Total ram usage:        0 bytes
  1598 ;; Hardware stack levels used:    1
  1599 ;; Hardware stack levels required when called:    6
  1600 ;; This function calls:
  1601 ;;		_GBS_Stepper_Buffer_Init
  1602 ;;		_GBS_Timer2_Config
  1603 ;; This function is called by:
  1604 ;;		_main
  1605 ;; This function uses a non-reentrant model
  1606 ;;
  1607                           
  1608                           
  1609                           ;psect for function _GBS_Stepper_Init
  1610  0908                     _GBS_Stepper_Init:
  1611  0908                     l2092:	
  1612                           ;incstack = 0
  1613                           ; Regs used in _GBS_Stepper_Init: [wreg-fsr0h+status,2+status,0+btemp+1+pclath+cstack]
  1614                           
  1615                           
  1616                           ;../gbs8/driver/scr/gbs8_stepper.c: 13:     GBS_Timer2_Config(1,T2CKPS1,T2OUTPS1,0);
  1617  0908  3000               	movlw	0
  1618  0909  1283               	bcf	3,5	;RP0=0, select bank0
  1619  090A  1303               	bcf	3,6	;RP1=0, select bank0
  1620  090B  1892               	btfsc	18,1	;volatile
  1621  090C  3001               	movlw	1
  1622  090D  1683               	bsf	3,5	;RP0=1, select bank3
  1623  090E  1703               	bsf	3,6	;RP1=1, select bank3
  1624  090F  009C               	movwf	GBS_Timer2_Config@ckPS^(0+384)
  1625  0910  019D               	clrf	GBS_Timer2_Config@outPS^(0+384)
  1626  0911  019E               	clrf	GBS_Timer2_Config@timVar^(0+384)
  1627  0912  3001               	movlw	1
  1628  0913  120A  158A  2138  120A  158A  	fcall	_GBS_Timer2_Config
  1629  0918                     l2094:
  1630                           
  1631                           ;../gbs8/driver/scr/gbs8_stepper.c: 17:     TRISDbits.TRISD7 = 0;
  1632  0918  1683               	bsf	3,5	;RP0=1, select bank1
  1633  0919  1303               	bcf	3,6	;RP1=0, select bank1
  1634  091A  1388               	bcf	8,7	;volatile
  1635  091B                     l2096:
  1636                           
  1637                           ;../gbs8/driver/scr/gbs8_stepper.c: 18:     stepperA.state = 0;
  1638  091B  1683               	bsf	3,5	;RP0=1, select bank3
  1639  091C  1703               	bsf	3,6	;RP1=1, select bank3
  1640  091D  0190               	clrf	_stepperA^(0+384)
  1641  091E                     l2098:
  1642                           
  1643                           ;../gbs8/driver/scr/gbs8_stepper.c: 19:     stepperA.cntsLast = 0;
  1644  091E  3097               	movlw	low ((_stepperA| (0+256)+7))
  1645  091F  0084               	movwf	4
  1646  0920  1783               	bsf	3,7	;select IRP bank2
  1647  0921  0180               	clrf	0
  1648  0922  0A84               	incf	4,f
  1649  0923  0180               	clrf	0
  1650  0924  0A84               	incf	4,f
  1651  0925  0180               	clrf	0
  1652  0926  0A84               	incf	4,f
  1653  0927  0180               	clrf	0
  1654  0928                     l2100:
  1655                           
  1656                           ;../gbs8/driver/scr/gbs8_stepper.c: 20:     stepperA.cnts = 0;
  1657  0928  3093               	movlw	low ((_stepperA| (0+256)+3))
  1658  0929  0084               	movwf	4
  1659  092A  0180               	clrf	0
  1660  092B  0A84               	incf	4,f
  1661  092C  0180               	clrf	0
  1662  092D  0A84               	incf	4,f
  1663  092E  0180               	clrf	0
  1664  092F  0A84               	incf	4,f
  1665  0930  0180               	clrf	0
  1666  0931                     l2102:
  1667                           
  1668                           ;../gbs8/driver/scr/gbs8_stepper.c: 21:     GBS_Stepper_Buffer_Init(&sBufferA);
  1669  0931  3010               	movlw	(low (_sBufferA| (0+256)))& (0+255)
  1670  0932  120A  158A  20E5  120A  158A  	fcall	_GBS_Stepper_Buffer_Init
  1671  0937                     l154:
  1672  0937  0008               	return
  1673  0938                     __end_of_GBS_Stepper_Init:
  1674                           
  1675                           	psect	text3
  1676  0938                     __ptext3:	
  1677 ;; *************** function _GBS_Timer2_Config *****************
  1678 ;; Defined at:
  1679 ;;		line 50 in file "../gbs8/bsp/scr/gbs8_timer.c"
  1680 ;; Parameters:    Size  Location     Type
  1681 ;;  state           1    wreg     unsigned char 
  1682 ;;  ckPS            1    0[BANK3 ] unsigned char 
  1683 ;;  outPS           1    1[BANK3 ] unsigned char 
  1684 ;;  timVar          1    2[BANK3 ] unsigned char 
  1685 ;; Auto vars:     Size  Location     Type
  1686 ;;  state           1    4[BANK3 ] unsigned char 
  1687 ;; Return value:  Size  Location     Type
  1688 ;;                  1    wreg      void 
  1689 ;; Registers used:
  1690 ;;		wreg, status,2, status,0
  1691 ;; Tracked objects:
  1692 ;;		On entry : 0/0
  1693 ;;		On exit  : 0/0
  1694 ;;		Unchanged: 0/0
  1695 ;; Data sizes:     COMMON   BANK0   BANK1   BANK3   BANK2
  1696 ;;      Params:         0       0       0       3       0
  1697 ;;      Locals:         0       0       0       1       0
  1698 ;;      Temps:          0       0       0       1       0
  1699 ;;      Totals:         0       0       0       5       0
  1700 ;;Total ram usage:        5 bytes
  1701 ;; Hardware stack levels used:    1
  1702 ;; Hardware stack levels required when called:    4
  1703 ;; This function calls:
  1704 ;;		Nothing
  1705 ;; This function is called by:
  1706 ;;		_GBS_Stepper_Init
  1707 ;; This function uses a non-reentrant model
  1708 ;;
  1709                           
  1710                           
  1711                           ;psect for function _GBS_Timer2_Config
  1712  0938                     _GBS_Timer2_Config:
  1713                           
  1714                           ;incstack = 0
  1715                           ; Regs used in _GBS_Timer2_Config: [wreg+status,2+status,0]
  1716                           ;GBS_Timer2_Config@state stored from wreg
  1717  0938  1683               	bsf	3,5	;RP0=1, select bank3
  1718  0939  1703               	bsf	3,6	;RP1=1, select bank3
  1719  093A  00A0               	movwf	GBS_Timer2_Config@state^(0+384)
  1720  093B                     l1994:
  1721                           
  1722                           ;../gbs8/bsp/scr/gbs8_timer.c: 50: void GBS_Timer2_Config(uint8_t state, uint8_t ckPS, u
      +                          int8_t outPS, uint8_t timVar);../gbs8/bsp/scr/gbs8_timer.c: 51: {;../gbs8/bsp/scr/gbs8_t
      +                          imer.c: 52:     TMR2ON = state;
  1723  093B  1820               	btfsc	GBS_Timer2_Config@state^(0+384),0
  1724  093C  293E               	goto	u2301
  1725  093D  2942               	goto	u2300
  1726  093E                     u2301:
  1727  093E  1283               	bcf	3,5	;RP0=0, select bank0
  1728  093F  1303               	bcf	3,6	;RP1=0, select bank0
  1729  0940  1512               	bsf	18,2	;volatile
  1730  0941  2945               	goto	u2314
  1731  0942                     u2300:
  1732  0942  1283               	bcf	3,5	;RP0=0, select bank0
  1733  0943  1303               	bcf	3,6	;RP1=0, select bank0
  1734  0944  1112               	bcf	18,2	;volatile
  1735  0945                     u2314:
  1736  0945                     l1996:
  1737                           
  1738                           ;../gbs8/bsp/scr/gbs8_timer.c: 53:     T2CONbits.T2CKPS = ckPS;
  1739  0945  0812               	movf	18,w	;volatile
  1740  0946  1683               	bsf	3,5	;RP0=1, select bank3
  1741  0947  1703               	bsf	3,6	;RP1=1, select bank3
  1742  0948  061C               	xorwf	GBS_Timer2_Config@ckPS^(0+384),w
  1743  0949  39FC               	andlw	-4
  1744  094A  061C               	xorwf	GBS_Timer2_Config@ckPS^(0+384),w
  1745  094B  1283               	bcf	3,5	;RP0=0, select bank0
  1746  094C  1303               	bcf	3,6	;RP1=0, select bank0
  1747  094D  0092               	movwf	18	;volatile
  1748                           
  1749                           ;../gbs8/bsp/scr/gbs8_timer.c: 54:     T2CONbits.TOUTPS = outPS;
  1750  094E  1683               	bsf	3,5	;RP0=1, select bank3
  1751  094F  1703               	bsf	3,6	;RP1=1, select bank3
  1752  0950  081D               	movf	GBS_Timer2_Config@outPS^(0+384),w
  1753  0951  009F               	movwf	??_GBS_Timer2_Config^(0+384)
  1754  0952  0D9F               	rlf	??_GBS_Timer2_Config^(0+384),f
  1755  0953  0D9F               	rlf	??_GBS_Timer2_Config^(0+384),f
  1756  0954  0D9F               	rlf	??_GBS_Timer2_Config^(0+384),f
  1757  0955  1283               	bcf	3,5	;RP0=0, select bank0
  1758  0956  1303               	bcf	3,6	;RP1=0, select bank0
  1759  0957  0812               	movf	18,w	;volatile
  1760  0958  1683               	bsf	3,5	;RP0=1, select bank3
  1761  0959  1703               	bsf	3,6	;RP1=1, select bank3
  1762  095A  061F               	xorwf	??_GBS_Timer2_Config^(0+384),w
  1763  095B  3987               	andlw	-121
  1764  095C  061F               	xorwf	??_GBS_Timer2_Config^(0+384),w
  1765  095D  1283               	bcf	3,5	;RP0=0, select bank0
  1766  095E  1303               	bcf	3,6	;RP1=0, select bank0
  1767  095F  0092               	movwf	18	;volatile
  1768  0960                     l1998:
  1769                           
  1770                           ;../gbs8/bsp/scr/gbs8_timer.c: 55:     PR2 = 255;
  1771  0960  30FF               	movlw	255
  1772  0961  1683               	bsf	3,5	;RP0=1, select bank1
  1773  0962  1303               	bcf	3,6	;RP1=0, select bank1
  1774  0963  0092               	movwf	18	;volatile
  1775  0964                     l2000:
  1776                           
  1777                           ;../gbs8/bsp/scr/gbs8_timer.c: 56:     TMR2 = timVar;
  1778  0964  1683               	bsf	3,5	;RP0=1, select bank3
  1779  0965  1703               	bsf	3,6	;RP1=1, select bank3
  1780  0966  081E               	movf	GBS_Timer2_Config@timVar^(0+384),w
  1781  0967  1283               	bcf	3,5	;RP0=0, select bank0
  1782  0968  1303               	bcf	3,6	;RP1=0, select bank0
  1783  0969  0091               	movwf	17	;volatile
  1784  096A                     l132:
  1785  096A  0008               	return
  1786  096B                     __end_of_GBS_Timer2_Config:
  1787                           
  1788                           	psect	text4
  1789  08E5                     __ptext4:	
  1790 ;; *************** function _GBS_Stepper_Buffer_Init *****************
  1791 ;; Defined at:
  1792 ;;		line 55 in file "../gbs8/driver/scr/gbs8_stepper.c"
  1793 ;; Parameters:    Size  Location     Type
  1794 ;;  sBufferX        1    wreg     PTR struct .
  1795 ;;		 -> sBufferA(80), 
  1796 ;; Auto vars:     Size  Location     Type
  1797 ;;  sBufferX        1    4[BANK3 ] PTR struct .
  1798 ;;		 -> sBufferA(80), 
  1799 ;;  i               1    5[BANK3 ] unsigned char 
  1800 ;; Return value:  Size  Location     Type
  1801 ;;                  1    wreg      void 
  1802 ;; Registers used:
  1803 ;;		wreg, fsr0l, fsr0h, status,2, status,0, btemp+1, pclath, cstack
  1804 ;; Tracked objects:
  1805 ;;		On entry : 0/0
  1806 ;;		On exit  : 0/0
  1807 ;;		Unchanged: 0/0
  1808 ;; Data sizes:     COMMON   BANK0   BANK1   BANK3   BANK2
  1809 ;;      Params:         0       0       0       0       0
  1810 ;;      Locals:         0       0       0       2       0
  1811 ;;      Temps:          0       0       0       1       0
  1812 ;;      Totals:         0       0       0       3       0
  1813 ;;Total ram usage:        3 bytes
  1814 ;; Hardware stack levels used:    1
  1815 ;; Hardware stack levels required when called:    5
  1816 ;; This function calls:
  1817 ;;		___bmul
  1818 ;; This function is called by:
  1819 ;;		_GBS_Stepper_Init
  1820 ;; This function uses a non-reentrant model
  1821 ;;
  1822                           
  1823                           
  1824                           ;psect for function _GBS_Stepper_Buffer_Init
  1825  08E5                     _GBS_Stepper_Buffer_Init:
  1826                           
  1827                           ;incstack = 0
  1828                           ; Regs used in _GBS_Stepper_Buffer_Init: [wreg-fsr0h+status,2+status,0+btemp+1+pclath+cs
      +                          tack]
  1829                           ;GBS_Stepper_Buffer_Init@sBufferX stored from wreg
  1830  08E5  1683               	bsf	3,5	;RP0=1, select bank3
  1831  08E6  1703               	bsf	3,6	;RP1=1, select bank3
  1832  08E7  00A0               	movwf	GBS_Stepper_Buffer_Init@sBufferX^(0+384)
  1833  08E8                     l2002:
  1834                           
  1835                           ;../gbs8/driver/scr/gbs8_stepper.c: 55: void GBS_Stepper_Buffer_Init(sBuffer_t* sBufferX
      +                          );../gbs8/driver/scr/gbs8_stepper.c: 56: {;../gbs8/driver/scr/gbs8_stepper.c: 57:     fo
      +                          r (uint8_t i = 0; i < 3; i++)
  1836  08E8  01A1               	clrf	GBS_Stepper_Buffer_Init@i^(0+384)
  1837  08E9                     l2008:
  1838                           
  1839                           ;../gbs8/driver/scr/gbs8_stepper.c: 58:     {;../gbs8/driver/scr/gbs8_stepper.c: 59:    
      +                               sBufferX->buffer[i].flag = 1;
  1840  08E9  301A               	movlw	26
  1841  08EA  00FF               	movwf	btemp+1
  1842  08EB  087F               	movf	btemp+1,w
  1843  08EC  009C               	movwf	___bmul@multiplicand^(0+384)
  1844  08ED  0821               	movf	GBS_Stepper_Buffer_Init@i^(0+384),w
  1845  08EE  120A  158A  207A  120A  158A  	fcall	___bmul
  1846  08F3  1683               	bsf	3,5	;RP0=1, select bank3
  1847  08F4  1703               	bsf	3,6	;RP1=1, select bank3
  1848  08F5  0720               	addwf	GBS_Stepper_Buffer_Init@sBufferX^(0+384),w
  1849  08F6  009F               	movwf	??_GBS_Stepper_Buffer_Init^(0+384)
  1850  08F7  081F               	movf	??_GBS_Stepper_Buffer_Init^(0+384),w
  1851  08F8  3E19               	addlw	25
  1852  08F9  0084               	movwf	4
  1853  08FA  1783               	bsf	3,7	;select IRP bank2
  1854  08FB  0180               	clrf	0
  1855  08FC  0A80               	incf	0,f
  1856  08FD                     l2010:
  1857                           
  1858                           ;../gbs8/driver/scr/gbs8_stepper.c: 60:     }
  1859  08FD  3001               	movlw	1
  1860  08FE  00FF               	movwf	btemp+1
  1861  08FF  087F               	movf	btemp+1,w
  1862  0900  07A1               	addwf	GBS_Stepper_Buffer_Init@i^(0+384),f
  1863  0901                     l2012:
  1864  0901  3003               	movlw	3
  1865  0902  0221               	subwf	GBS_Stepper_Buffer_Init@i^(0+384),w
  1866  0903  1C03               	skipc
  1867  0904  2906               	goto	u2321
  1868  0905  2907               	goto	u2320
  1869  0906                     u2321:
  1870  0906  28E9               	goto	l2008
  1871  0907                     u2320:
  1872  0907                     l159:
  1873  0907  0008               	return
  1874  0908                     __end_of_GBS_Stepper_Buffer_Init:
  1875                           
  1876                           	psect	text5
  1877  087A                     __ptext5:	
  1878 ;; *************** function ___bmul *****************
  1879 ;; Defined at:
  1880 ;;		line 4 in file "C:\Program Files\Microchip\xc8\v2.20\pic\sources\c90\common\Umul8.c"
  1881 ;; Parameters:    Size  Location     Type
  1882 ;;  multiplier      1    wreg     unsigned char 
  1883 ;;  multiplicand    1    0[BANK3 ] unsigned char 
  1884 ;; Auto vars:     Size  Location     Type
  1885 ;;  multiplier      1    2[BANK3 ] unsigned char 
  1886 ;;  product         1    1[BANK3 ] unsigned char 
  1887 ;; Return value:  Size  Location     Type
  1888 ;;                  1    wreg      unsigned char 
  1889 ;; Registers used:
  1890 ;;		wreg, status,2, status,0, btemp+1
  1891 ;; Tracked objects:
  1892 ;;		On entry : 0/0
  1893 ;;		On exit  : 0/0
  1894 ;;		Unchanged: 0/0
  1895 ;; Data sizes:     COMMON   BANK0   BANK1   BANK3   BANK2
  1896 ;;      Params:         0       0       0       1       0
  1897 ;;      Locals:         0       0       0       2       0
  1898 ;;      Temps:          0       0       0       0       0
  1899 ;;      Totals:         0       0       0       3       0
  1900 ;;Total ram usage:        3 bytes
  1901 ;; Hardware stack levels used:    1
  1902 ;; Hardware stack levels required when called:    4
  1903 ;; This function calls:
  1904 ;;		Nothing
  1905 ;; This function is called by:
  1906 ;;		_main
  1907 ;;		_GBS_Stepper_Buffer_Init
  1908 ;;		_GBS_Stepper_Exe
  1909 ;;		_GBS_Stepper_Planner
  1910 ;; This function uses a non-reentrant model
  1911 ;;
  1912                           
  1913                           
  1914                           ;psect for function ___bmul
  1915  087A                     ___bmul:
  1916                           
  1917                           ;incstack = 0
  1918                           ; Regs used in ___bmul: [wreg+status,2+status,0+btemp+1]
  1919                           ;___bmul@multiplier stored from wreg
  1920  087A  1683               	bsf	3,5	;RP0=1, select bank3
  1921  087B  1703               	bsf	3,6	;RP1=1, select bank3
  1922  087C  009E               	movwf	___bmul@multiplier^(0+384)
  1923  087D                     l1662:
  1924  087D  019D               	clrf	___bmul@product^(0+384)
  1925  087E                     l1664:
  1926  087E  1C1E               	btfss	___bmul@multiplier^(0+384),0
  1927  087F  2881               	goto	u1561
  1928  0880  2882               	goto	u1560
  1929  0881                     u1561:
  1930  0881  2886               	goto	l1668
  1931  0882                     u1560:
  1932  0882                     l1666:
  1933  0882  081C               	movf	___bmul@multiplicand^(0+384),w
  1934  0883  00FF               	movwf	btemp+1
  1935  0884  087F               	movf	btemp+1,w
  1936  0885  079D               	addwf	___bmul@product^(0+384),f
  1937  0886                     l1668:
  1938  0886  1003               	clrc
  1939  0887  0D9C               	rlf	___bmul@multiplicand^(0+384),f
  1940  0888                     l1670:
  1941  0888  1003               	clrc
  1942  0889  0C9E               	rrf	___bmul@multiplier^(0+384),f
  1943  088A                     l1672:
  1944  088A  081E               	movf	___bmul@multiplier^(0+384),w
  1945  088B  1D03               	btfss	3,2
  1946  088C  288E               	goto	u1571
  1947  088D  288F               	goto	u1570
  1948  088E                     u1571:
  1949  088E  287E               	goto	l1664
  1950  088F                     u1570:
  1951  088F                     l1674:
  1952  088F  081D               	movf	___bmul@product^(0+384),w
  1953  0890                     l308:
  1954  0890  0008               	return
  1955  0891                     __end_of___bmul:
  1956                           
  1957                           	psect	text6
  1958  0859                     __ptext6:	
  1959 ;; *************** function _GBS_Interrupt_Init *****************
  1960 ;; Defined at:
  1961 ;;		line 6 in file "../gbs8/bsp/scr/gbs8_interrupt.c"
  1962 ;; Parameters:    Size  Location     Type
  1963 ;;		None
  1964 ;; Auto vars:     Size  Location     Type
  1965 ;;		None
  1966 ;; Return value:  Size  Location     Type
  1967 ;;                  1    wreg      void 
  1968 ;; Registers used:
  1969 ;;		wreg, status,2, status,0, pclath, cstack
  1970 ;; Tracked objects:
  1971 ;;		On entry : 0/0
  1972 ;;		On exit  : 0/0
  1973 ;;		Unchanged: 0/0
  1974 ;; Data sizes:     COMMON   BANK0   BANK1   BANK3   BANK2
  1975 ;;      Params:         0       0       0       0       0
  1976 ;;      Locals:         0       0       0       0       0
  1977 ;;      Temps:          0       0       0       0       0
  1978 ;;      Totals:         0       0       0       0       0
  1979 ;;Total ram usage:        0 bytes
  1980 ;; Hardware stack levels used:    1
  1981 ;; Hardware stack levels required when called:    5
  1982 ;; This function calls:
  1983 ;;		_GBS_Interrupt_Enable
  1984 ;;		_GBS_T2I_Config
  1985 ;; This function is called by:
  1986 ;;		_main
  1987 ;; This function uses a non-reentrant model
  1988 ;;
  1989                           
  1990                           
  1991                           ;psect for function _GBS_Interrupt_Init
  1992  0859                     _GBS_Interrupt_Init:
  1993  0859                     l2088:	
  1994                           ;incstack = 0
  1995                           ; Regs used in _GBS_Interrupt_Init: [wreg+status,2+status,0+pclath+cstack]
  1996                           
  1997                           
  1998                           ;../gbs8/bsp/scr/gbs8_interrupt.c: 21:     GBS_T2I_Config(1);
  1999  0859  3001               	movlw	1
  2000  085A  120A  118A  2019  120A  158A  	fcall	_GBS_T2I_Config
  2001  085F                     l2090:
  2002                           
  2003                           ;../gbs8/bsp/scr/gbs8_interrupt.c: 23:     GBS_Interrupt_Enable();
  2004  085F  120A  158A  204E  120A  158A  	fcall	_GBS_Interrupt_Enable
  2005  0864                     l65:
  2006  0864  0008               	return
  2007  0865                     __end_of_GBS_Interrupt_Init:
  2008                           
  2009                           	psect	text7
  2010  0019                     __ptext7:	
  2011 ;; *************** function _GBS_T2I_Config *****************
  2012 ;; Defined at:
  2013 ;;		line 82 in file "../gbs8/bsp/scr/gbs8_interrupt.c"
  2014 ;; Parameters:    Size  Location     Type
  2015 ;;  mode            1    wreg     unsigned char 
  2016 ;; Auto vars:     Size  Location     Type
  2017 ;;  mode            1    0[BANK3 ] unsigned char 
  2018 ;; Return value:  Size  Location     Type
  2019 ;;                  1    wreg      void 
  2020 ;; Registers used:
  2021 ;;		wreg, status,0
  2022 ;; Tracked objects:
  2023 ;;		On entry : 0/0
  2024 ;;		On exit  : 0/0
  2025 ;;		Unchanged: 0/0
  2026 ;; Data sizes:     COMMON   BANK0   BANK1   BANK3   BANK2
  2027 ;;      Params:         0       0       0       0       0
  2028 ;;      Locals:         0       0       0       1       0
  2029 ;;      Temps:          0       0       0       0       0
  2030 ;;      Totals:         0       0       0       1       0
  2031 ;;Total ram usage:        1 bytes
  2032 ;; Hardware stack levels used:    1
  2033 ;; Hardware stack levels required when called:    4
  2034 ;; This function calls:
  2035 ;;		Nothing
  2036 ;; This function is called by:
  2037 ;;		_GBS_Interrupt_Init
  2038 ;; This function uses a non-reentrant model
  2039 ;;
  2040                           
  2041                           
  2042                           ;psect for function _GBS_T2I_Config
  2043  0019                     _GBS_T2I_Config:
  2044                           
  2045                           ;incstack = 0
  2046                           ; Regs used in _GBS_T2I_Config: [wreg+status,0]
  2047                           ;GBS_T2I_Config@mode stored from wreg
  2048  0019  1683               	bsf	3,5	;RP0=1, select bank3
  2049  001A  1703               	bsf	3,6	;RP1=1, select bank3
  2050  001B  009C               	movwf	GBS_T2I_Config@mode^(0+384)
  2051  001C                     l1988:
  2052                           
  2053                           ;../gbs8/bsp/scr/gbs8_interrupt.c: 82: void GBS_T2I_Config(uint8_t mode);../gbs8/bsp/scr
      +                          /gbs8_interrupt.c: 83: {;../gbs8/bsp/scr/gbs8_interrupt.c: 84:     PIR1bits.TMR2IF = 0;
  2054  001C  1283               	bcf	3,5	;RP0=0, select bank0
  2055  001D  1303               	bcf	3,6	;RP1=0, select bank0
  2056  001E  108C               	bcf	12,1	;volatile
  2057  001F                     l1990:
  2058                           
  2059                           ;../gbs8/bsp/scr/gbs8_interrupt.c: 85:     PIE1bits.TMR2IE = mode;
  2060  001F  1683               	bsf	3,5	;RP0=1, select bank3
  2061  0020  1703               	bsf	3,6	;RP1=1, select bank3
  2062  0021  0C1C               	rrf	GBS_T2I_Config@mode^(0+384),w
  2063  0022  1683               	bsf	3,5	;RP0=1, select bank1
  2064  0023  1303               	bcf	3,6	;RP1=0, select bank1
  2065  0024  1C03               	skipc
  2066  0025  108C               	bcf	12,1	;volatile
  2067  0026  1803               	skipnc
  2068  0027  148C               	bsf	12,1	;volatile
  2069  0028                     l86:
  2070  0028  0008               	return
  2071  0029                     __end_of_GBS_T2I_Config:
  2072                           
  2073                           	psect	text8
  2074  084E                     __ptext8:	
  2075 ;; *************** function _GBS_Interrupt_Enable *****************
  2076 ;; Defined at:
  2077 ;;		line 26 in file "../gbs8/bsp/scr/gbs8_interrupt.c"
  2078 ;; Parameters:    Size  Location     Type
  2079 ;;		None
  2080 ;; Auto vars:     Size  Location     Type
  2081 ;;		None
  2082 ;; Return value:  Size  Location     Type
  2083 ;;                  1    wreg      void 
  2084 ;; Registers used:
  2085 ;;		None
  2086 ;; Tracked objects:
  2087 ;;		On entry : 0/0
  2088 ;;		On exit  : 0/0
  2089 ;;		Unchanged: 0/0
  2090 ;; Data sizes:     COMMON   BANK0   BANK1   BANK3   BANK2
  2091 ;;      Params:         0       0       0       0       0
  2092 ;;      Locals:         0       0       0       0       0
  2093 ;;      Temps:          0       0       0       0       0
  2094 ;;      Totals:         0       0       0       0       0
  2095 ;;Total ram usage:        0 bytes
  2096 ;; Hardware stack levels used:    1
  2097 ;; Hardware stack levels required when called:    4
  2098 ;; This function calls:
  2099 ;;		Nothing
  2100 ;; This function is called by:
  2101 ;;		_GBS_Interrupt_Init
  2102 ;; This function uses a non-reentrant model
  2103 ;;
  2104                           
  2105                           
  2106                           ;psect for function _GBS_Interrupt_Enable
  2107  084E                     _GBS_Interrupt_Enable:
  2108  084E                     l1992:	
  2109                           ;incstack = 0
  2110                           ; Regs used in _GBS_Interrupt_Enable: []
  2111                           
  2112                           
  2113                           ;../gbs8/bsp/scr/gbs8_interrupt.c: 28:     INTCONbits.PEIE = 1;
  2114  084E  170B               	bsf	11,6	;volatile
  2115                           
  2116                           ;../gbs8/bsp/scr/gbs8_interrupt.c: 29:     INTCONbits.GIE = 1;
  2117  084F  178B               	bsf	11,7	;volatile
  2118  0850                     l68:
  2119  0850  0008               	return
  2120  0851                     __end_of_GBS_Interrupt_Enable:
  2121                           
  2122                           	psect	text9
  2123  08C6                     __ptext9:	
  2124 ;; *************** function _ISR *****************
  2125 ;; Defined at:
  2126 ;;		line 90 in file "../gbs8/bsp/scr/gbs8_interrupt.c"
  2127 ;; Parameters:    Size  Location     Type
  2128 ;;		None
  2129 ;; Auto vars:     Size  Location     Type
  2130 ;;		None
  2131 ;; Return value:  Size  Location     Type
  2132 ;;                  1    wreg      void 
  2133 ;; Registers used:
  2134 ;;		wreg, fsr0l, fsr0h, status,2, status,0, btemp+1, pclath, cstack
  2135 ;; Tracked objects:
  2136 ;;		On entry : 0/0
  2137 ;;		On exit  : 0/0
  2138 ;;		Unchanged: 0/0
  2139 ;; Data sizes:     COMMON   BANK0   BANK1   BANK3   BANK2
  2140 ;;      Params:         0       0       0       0       0
  2141 ;;      Locals:         0       0       0       0       0
  2142 ;;      Temps:          0       0       4       0       0
  2143 ;;      Totals:         0       0       4       0       0
  2144 ;;Total ram usage:        4 bytes
  2145 ;; Hardware stack levels used:    1
  2146 ;; Hardware stack levels required when called:    3
  2147 ;; This function calls:
  2148 ;;		_T2I_ISR
  2149 ;; This function is called by:
  2150 ;;		Interrupt level 1
  2151 ;; This function uses a non-reentrant model
  2152 ;;
  2153                           
  2154                           
  2155                           ;psect for function _ISR
  2156  08C6                     _ISR:
  2157  08C6                     i1l2160:
  2158                           
  2159                           ;../gbs8/bsp/scr/gbs8_interrupt.c: 128:     if (PIR1bits.TMR2IF)
  2160  08C6  1283               	bcf	3,5	;RP0=0, select bank0
  2161  08C7  1303               	bcf	3,6	;RP1=0, select bank0
  2162  08C8  1C8C               	btfss	12,1	;volatile
  2163  08C9  28CB               	goto	u257_21
  2164  08CA  28CC               	goto	u257_20
  2165  08CB                     u257_21:
  2166  08CB  28D4               	goto	i1l92
  2167  08CC                     u257_20:
  2168  08CC                     i1l2162:
  2169                           
  2170                           ;../gbs8/bsp/scr/gbs8_interrupt.c: 129:     {;../gbs8/bsp/scr/gbs8_interrupt.c: 130:    
      +                               T2I_ISR();
  2171  08CC  120A  158A  2091  120A  158A  	fcall	_T2I_ISR
  2172  08D1                     i1l2164:
  2173                           
  2174                           ;../gbs8/bsp/scr/gbs8_interrupt.c: 131:         PIR1bits.TMR2IF = 0;
  2175  08D1  1283               	bcf	3,5	;RP0=0, select bank0
  2176  08D2  1303               	bcf	3,6	;RP1=0, select bank0
  2177  08D3  108C               	bcf	12,1	;volatile
  2178  08D4                     i1l92:
  2179  08D4  1683               	bsf	3,5	;RP0=1, select bank1
  2180  08D5  1303               	bcf	3,6	;RP1=0, select bank1
  2181  08D6  0866               	movf	(??_ISR+3)^(0+128),w
  2182  08D7  1283               	bcf	3,5	;RP0=0, select bank0
  2183  08D8  1303               	bcf	3,6	;RP1=0, select bank0
  2184  08D9  00FF               	movwf	btemp+1
  2185  08DA  1683               	bsf	3,5	;RP0=1, select bank1
  2186  08DB  1303               	bcf	3,6	;RP1=0, select bank1
  2187  08DC  0865               	movf	(??_ISR+2)^(0+128),w
  2188  08DD  008A               	movwf	10
  2189  08DE  0864               	movf	(??_ISR+1)^(0+128),w
  2190  08DF  0084               	movwf	4
  2191  08E0  0E63               	swapf	??_ISR^(0+128),w
  2192  08E1  0083               	movwf	3
  2193  08E2  0EFE               	swapf	btemp,f
  2194  08E3  0E7E               	swapf	btemp,w
  2195  08E4  0009               	retfie
  2196  08E5                     __end_of_ISR:
  2197                           
  2198                           	psect	intentry
  2199  0004                     __pintentry:	
  2200                           ;incstack = 0
  2201                           ; Regs used in _ISR: [wreg-fsr0h+status,2+status,0+btemp+1+pclath+cstack]
  2202                           
  2203  0004                     interrupt_function:
  2204  007E                     saved_w	set	btemp
  2205  0004  00FE               	movwf	btemp
  2206  0005  0E03               	swapf	3,w
  2207  0006  1683               	bsf	3,5	;RP0=1, select bank1
  2208  0007  1303               	bcf	3,6	;RP1=0, select bank1
  2209  0008  00E3               	movwf	??_ISR^(0+128)
  2210  0009  0804               	movf	4,w
  2211  000A  00E4               	movwf	(??_ISR+1)^(0+128)
  2212  000B  080A               	movf	10,w
  2213  000C  00E5               	movwf	(??_ISR+2)^(0+128)
  2214  000D  1283               	bcf	3,5	;RP0=0, select bank0
  2215  000E  1303               	bcf	3,6	;RP1=0, select bank0
  2216  000F  087F               	movf	btemp+1,w
  2217  0010  1683               	bsf	3,5	;RP0=1, select bank1
  2218  0011  1303               	bcf	3,6	;RP1=0, select bank1
  2219  0012  00E6               	movwf	(??_ISR+3)^(0+128)
  2220  0013  120A  158A  28C6   	ljmp	_ISR
  2221                           
  2222                           	psect	text10
  2223  0891                     __ptext10:	
  2224 ;; *************** function _T2I_ISR *****************
  2225 ;; Defined at:
  2226 ;;		line 320 in file "../gbs8/driver/scr/gbs8_stepper.c"
  2227 ;; Parameters:    Size  Location     Type
  2228 ;;		None
  2229 ;; Auto vars:     Size  Location     Type
  2230 ;;		None
  2231 ;; Return value:  Size  Location     Type
  2232 ;;                  1    wreg      void 
  2233 ;; Registers used:
  2234 ;;		wreg, fsr0l, fsr0h, status,2, status,0, btemp+1, pclath, cstack
  2235 ;; Tracked objects:
  2236 ;;		On entry : 0/0
  2237 ;;		On exit  : 0/0
  2238 ;;		Unchanged: 0/0
  2239 ;; Data sizes:     COMMON   BANK0   BANK1   BANK3   BANK2
  2240 ;;      Params:         0       0       0       0       0
  2241 ;;      Locals:         0       0       0       0       0
  2242 ;;      Temps:          0       0       0       0       0
  2243 ;;      Totals:         0       0       0       0       0
  2244 ;;Total ram usage:        0 bytes
  2245 ;; Hardware stack levels used:    1
  2246 ;; Hardware stack levels required when called:    2
  2247 ;; This function calls:
  2248 ;;		_GBS_Stepper_Exe
  2249 ;;		_GBS_Stepper_Update
  2250 ;; This function is called by:
  2251 ;;		_ISR
  2252 ;; This function uses a non-reentrant model
  2253 ;;
  2254                           
  2255                           
  2256                           ;psect for function _T2I_ISR
  2257  0891                     _T2I_ISR:
  2258  0891                     i1l2104:	
  2259                           ;incstack = 0
  2260                           ; Regs used in _T2I_ISR: [wreg-fsr0h+status,2+status,0+btemp+1+pclath+cstack]
  2261                           
  2262                           
  2263                           ;../gbs8/driver/scr/gbs8_stepper.c: 328:     if (stepperA.lock==0) GBS_Stepper_Exe(&step
      +                          perA, &sBufferA);
  2264  0891  1683               	bsf	3,5	;RP0=1, select bank3
  2265  0892  1703               	bsf	3,6	;RP1=1, select bank3
  2266  0893  0811               	movf	(_stepperA^(0+384)+1),w
  2267  0894  1D03               	btfss	3,2
  2268  0895  2897               	goto	u246_21
  2269  0896  2898               	goto	u246_20
  2270  0897                     u246_21:
  2271  0897  28A4               	goto	i1l2108
  2272  0898                     u246_20:
  2273  0898                     i1l2106:
  2274  0898  3010               	movlw	(low (_sBufferA| (0+256)))& (0+255)
  2275  0899  00FF               	movwf	btemp+1
  2276  089A  087F               	movf	btemp+1,w
  2277  089B  1683               	bsf	3,5	;RP0=1, select bank1
  2278  089C  1303               	bcf	3,6	;RP1=0, select bank1
  2279  089D  00B6               	movwf	GBS_Stepper_Exe@sBufferX^(0+128)
  2280  089E  3090               	movlw	(low (_stepperA| (0+256)))& (0+255)
  2281  089F  120A  118A  21DC  120A  158A  	fcall	_GBS_Stepper_Exe
  2282  08A4                     i1l2108:
  2283                           
  2284                           ;../gbs8/driver/scr/gbs8_stepper.c: 347:     GBS_Stepper_Update();
  2285  08A4  120A  158A  20AA  120A  158A  	fcall	_GBS_Stepper_Update
  2286  08A9                     i1l196:
  2287  08A9  0008               	return
  2288  08AA                     __end_of_T2I_ISR:
  2289                           
  2290                           	psect	text11
  2291  08AA                     __ptext11:	
  2292 ;; *************** function _GBS_Stepper_Update *****************
  2293 ;; Defined at:
  2294 ;;		line 256 in file "../gbs8/driver/scr/gbs8_stepper.c"
  2295 ;; Parameters:    Size  Location     Type
  2296 ;;		None
  2297 ;; Auto vars:     Size  Location     Type
  2298 ;;		None
  2299 ;; Return value:  Size  Location     Type
  2300 ;;                  1    wreg      void 
  2301 ;; Registers used:
  2302 ;;		wreg, status,2, status,0
  2303 ;; Tracked objects:
  2304 ;;		On entry : 0/0
  2305 ;;		On exit  : 0/0
  2306 ;;		Unchanged: 0/0
  2307 ;; Data sizes:     COMMON   BANK0   BANK1   BANK3   BANK2
  2308 ;;      Params:         0       0       0       0       0
  2309 ;;      Locals:         0       0       0       0       0
  2310 ;;      Temps:          0       0       0       0       0
  2311 ;;      Totals:         0       0       0       0       0
  2312 ;;Total ram usage:        0 bytes
  2313 ;; Hardware stack levels used:    1
  2314 ;; This function calls:
  2315 ;;		Nothing
  2316 ;; This function is called by:
  2317 ;;		_T2I_ISR
  2318 ;; This function uses a non-reentrant model
  2319 ;;
  2320                           
  2321                           
  2322                           ;psect for function _GBS_Stepper_Update
  2323  08AA                     _GBS_Stepper_Update:
  2324  08AA                     i1l2082:	
  2325                           ;incstack = 0
  2326                           ; Regs used in _GBS_Stepper_Update: [wreg+status,2+status,0]
  2327                           
  2328                           
  2329                           ;../gbs8/driver/scr/gbs8_stepper.c: 259:     if (stepperA.state == 0)
  2330  08AA  1683               	bsf	3,5	;RP0=1, select bank3
  2331  08AB  1703               	bsf	3,6	;RP1=1, select bank3
  2332  08AC  0810               	movf	_stepperA^(0+384),w
  2333  08AD  1D03               	btfss	3,2
  2334  08AE  28B0               	goto	u245_21
  2335  08AF  28B1               	goto	u245_20
  2336  08B0                     u245_21:
  2337  08B0  28B5               	goto	i1l2086
  2338  08B1                     u245_20:
  2339  08B1                     i1l2084:
  2340                           
  2341                           ;../gbs8/driver/scr/gbs8_stepper.c: 260:     {;../gbs8/driver/scr/gbs8_stepper.c: 261:  
      +                                 TRISEbits.TRISE0 = 0;
  2342  08B1  1683               	bsf	3,5	;RP0=1, select bank1
  2343  08B2  1303               	bcf	3,6	;RP1=0, select bank1
  2344  08B3  1009               	bcf	9,0	;volatile
  2345                           
  2346                           ;../gbs8/driver/scr/gbs8_stepper.c: 262:     }
  2347  08B4  28C5               	goto	i1l192
  2348  08B5                     i1l2086:
  2349                           
  2350                           ;../gbs8/driver/scr/gbs8_stepper.c: 264:     {;../gbs8/driver/scr/gbs8_stepper.c: 265:  
      +                                 TRISDbits.TRISD7 = stepperA.dir;
  2351  08B5  0C12               	rrf	(_stepperA^(0+384)+2),w
  2352  08B6  1683               	bsf	3,5	;RP0=1, select bank1
  2353  08B7  1303               	bcf	3,6	;RP1=0, select bank1
  2354  08B8  1C03               	skipc
  2355  08B9  1388               	bcf	8,7	;volatile
  2356  08BA  1803               	skipnc
  2357  08BB  1788               	bsf	8,7	;volatile
  2358                           
  2359                           ;../gbs8/driver/scr/gbs8_stepper.c: 266:         TRISEbits.TRISE0 = stepperA.pinState;
  2360  08BC  1683               	bsf	3,5	;RP0=1, select bank3
  2361  08BD  1703               	bsf	3,6	;RP1=1, select bank3
  2362  08BE  0C1B               	rrf	(_stepperA^(0+384)+11),w
  2363  08BF  1683               	bsf	3,5	;RP0=1, select bank1
  2364  08C0  1303               	bcf	3,6	;RP1=0, select bank1
  2365  08C1  1C03               	skipc
  2366  08C2  1009               	bcf	9,0	;volatile
  2367  08C3  1803               	skipnc
  2368  08C4  1409               	bsf	9,0	;volatile
  2369  08C5                     i1l192:
  2370  08C5  0008               	return
  2371  08C6                     __end_of_GBS_Stepper_Update:
  2372                           
  2373                           	psect	text12
  2374  01DC                     __ptext12:	
  2375 ;; *************** function _GBS_Stepper_Exe *****************
  2376 ;; Defined at:
  2377 ;;		line 197 in file "../gbs8/driver/scr/gbs8_stepper.c"
  2378 ;; Parameters:    Size  Location     Type
  2379 ;;  stepperX        1    wreg     PTR struct .
  2380 ;;		 -> stepperA(12), 
  2381 ;;  sBufferX        1   22[BANK1 ] PTR struct .
  2382 ;;		 -> sBufferA(80), 
  2383 ;; Auto vars:     Size  Location     Type
  2384 ;;  stepperX        1   66[BANK1 ] PTR struct .
  2385 ;;		 -> stepperA(12), 
  2386 ;; Return value:  Size  Location     Type
  2387 ;;                  1    wreg      void 
  2388 ;; Registers used:
  2389 ;;		wreg, fsr0l, fsr0h, status,2, status,0, btemp+1, pclath, cstack
  2390 ;; Tracked objects:
  2391 ;;		On entry : 0/0
  2392 ;;		On exit  : 0/0
  2393 ;;		Unchanged: 0/0
  2394 ;; Data sizes:     COMMON   BANK0   BANK1   BANK3   BANK2
  2395 ;;      Params:         0       0       1       0       0
  2396 ;;      Locals:         0       0      29       0       0
  2397 ;;      Temps:          0       0      15       0       0
  2398 ;;      Totals:         0       0      45       0       0
  2399 ;;Total ram usage:       45 bytes
  2400 ;; Hardware stack levels used:    1
  2401 ;; Hardware stack levels required when called:    1
  2402 ;; This function calls:
  2403 ;;		___fldiv
  2404 ;;		___fltol
  2405 ;;		___lldiv
  2406 ;;		___lmul
  2407 ;;		___xxtofl
  2408 ;;		_sqrt
  2409 ;;		i1___awmod
  2410 ;;		i1___bmul
  2411 ;; This function is called by:
  2412 ;;		_T2I_ISR
  2413 ;; This function uses a non-reentrant model
  2414 ;;
  2415                           
  2416                           
  2417                           ;psect for function _GBS_Stepper_Exe
  2418  01DC                     _GBS_Stepper_Exe:
  2419                           
  2420                           ;incstack = 0
  2421                           ; Regs used in _GBS_Stepper_Exe: [wreg-fsr0h+status,2+status,0+btemp+1+pclath+cstack]
  2422                           ;GBS_Stepper_Exe@stepperX stored from wreg
  2423  01DC  1683               	bsf	3,5	;RP0=1, select bank1
  2424  01DD  1303               	bcf	3,6	;RP1=0, select bank1
  2425  01DE  00E2               	movwf	GBS_Stepper_Exe@stepperX^(0+128)
  2426  01DF                     i1l2014:
  2427                           
  2428                           ;../gbs8/driver/scr/gbs8_stepper.c: 197: void GBS_Stepper_Exe(stepper_t* stepperX, sBuff
      +                          er_t* sBufferX);../gbs8/driver/scr/gbs8_stepper.c: 198: {;../gbs8/driver/scr/gbs8_steppe
      +                          r.c: 199:     if (stepperX->pinState==1)
  2429  01DF  0862               	movf	GBS_Stepper_Exe@stepperX^(0+128),w
  2430  01E0  3E0B               	addlw	11
  2431  01E1  0084               	movwf	4
  2432  01E2  1783               	bsf	3,7	;select IRP bank2
  2433  01E3  0300               	decf	0,w
  2434  01E4  1D03               	btfss	3,2
  2435  01E5  29E7               	goto	u233_21
  2436  01E6  29E8               	goto	u233_20
  2437  01E7                     u233_21:
  2438  01E7  2A03               	goto	i1l2018
  2439  01E8                     u233_20:
  2440  01E8                     i1l2016:
  2441                           
  2442                           ;../gbs8/driver/scr/gbs8_stepper.c: 200:     {;../gbs8/driver/scr/gbs8_stepper.c: 201:  
      +                                 stepperX->pinState = 0;
  2443  01E8  0862               	movf	GBS_Stepper_Exe@stepperX^(0+128),w
  2444  01E9  3E0B               	addlw	11
  2445  01EA  0084               	movwf	4
  2446  01EB  0180               	clrf	0
  2447                           
  2448                           ;../gbs8/driver/scr/gbs8_stepper.c: 202:         stepperX->cnts--;
  2449  01EC  0862               	movf	GBS_Stepper_Exe@stepperX^(0+128),w
  2450  01ED  3E03               	addlw	3
  2451  01EE  0084               	movwf	4
  2452  01EF  3001               	movlw	1
  2453  01F0  0280               	subwf	0,f
  2454  01F1  0A84               	incf	4,f
  2455  01F2  3000               	movlw	0
  2456  01F3  1C03               	skipc
  2457  01F4  3001               	movlw	1
  2458  01F5  0280               	subwf	0,f
  2459  01F6  0A84               	incf	4,f
  2460  01F7  3000               	movlw	0
  2461  01F8  1C03               	skipc
  2462  01F9  3001               	movlw	1
  2463  01FA  0280               	subwf	0,f
  2464  01FB  0A84               	incf	4,f
  2465  01FC  3000               	movlw	0
  2466  01FD  1C03               	skipc
  2467  01FE  3001               	movlw	1
  2468  01FF  0280               	subwf	0,f
  2469  0200  3003               	movlw	3
  2470  0201  0284               	subwf	4,f
  2471                           
  2472                           ;../gbs8/driver/scr/gbs8_stepper.c: 203:     }
  2473  0202  2FE6               	goto	i1l187
  2474  0203                     i1l2018:
  2475                           
  2476                           ;../gbs8/driver/scr/gbs8_stepper.c: 205:     {;../gbs8/driver/scr/gbs8_stepper.c: 206:  
      +                                 if (stepperX->cnts>0) stepperX->cnts--;
  2477  0203  0862               	movf	GBS_Stepper_Exe@stepperX^(0+128),w
  2478  0204  3E03               	addlw	3
  2479  0205  0084               	movwf	4
  2480  0206  0800               	movf	0,w
  2481  0207  00B7               	movwf	??_GBS_Stepper_Exe^(0+128)
  2482  0208  0A84               	incf	4,f
  2483  0209  0800               	movf	0,w
  2484  020A  00B8               	movwf	(??_GBS_Stepper_Exe^(0+128)+1)
  2485  020B  0A84               	incf	4,f
  2486  020C  0800               	movf	0,w
  2487  020D  00B9               	movwf	(??_GBS_Stepper_Exe^(0+128)+2)
  2488  020E  0A84               	incf	4,f
  2489  020F  0800               	movf	0,w
  2490  0210  00BA               	movwf	(??_GBS_Stepper_Exe^(0+128)+3)
  2491  0211  083A               	movf	(??_GBS_Stepper_Exe+3)^(0+128),w
  2492  0212  0439               	iorwf	(??_GBS_Stepper_Exe+2)^(0+128),w
  2493  0213  0438               	iorwf	(??_GBS_Stepper_Exe+1)^(0+128),w
  2494  0214  0437               	iorwf	??_GBS_Stepper_Exe^(0+128),w
  2495  0215  1903               	skipnz
  2496  0216  2A18               	goto	u234_21
  2497  0217  2A19               	goto	u234_20
  2498  0218                     u234_21:
  2499  0218  2A30               	goto	i1l2022
  2500  0219                     u234_20:
  2501  0219                     i1l2020:
  2502  0219  0862               	movf	GBS_Stepper_Exe@stepperX^(0+128),w
  2503  021A  3E03               	addlw	3
  2504  021B  0084               	movwf	4
  2505  021C  3001               	movlw	1
  2506  021D  0280               	subwf	0,f
  2507  021E  0A84               	incf	4,f
  2508  021F  3000               	movlw	0
  2509  0220  1C03               	skipc
  2510  0221  3001               	movlw	1
  2511  0222  0280               	subwf	0,f
  2512  0223  0A84               	incf	4,f
  2513  0224  3000               	movlw	0
  2514  0225  1C03               	skipc
  2515  0226  3001               	movlw	1
  2516  0227  0280               	subwf	0,f
  2517  0228  0A84               	incf	4,f
  2518  0229  3000               	movlw	0
  2519  022A  1C03               	skipc
  2520  022B  3001               	movlw	1
  2521  022C  0280               	subwf	0,f
  2522  022D  3003               	movlw	3
  2523  022E  0284               	subwf	4,f
  2524  022F  2FE6               	goto	i1l187
  2525  0230                     i1l2022:
  2526                           
  2527                           ;../gbs8/driver/scr/gbs8_stepper.c: 208:         {;../gbs8/driver/scr/gbs8_stepper.c: 21
      +                          0:             if (sBufferX->buffer[sBufferX->head].acc_until+sBufferX->buffer[sBufferX-
      +                          >head].dec_after+sBufferX->buffer[sBufferX->head].dec_until==0)
  2528  0230  301A               	movlw	26
  2529  0231  00FF               	movwf	btemp+1
  2530  0232  087F               	movf	btemp+1,w
  2531  0233  00F7               	movwf	i1___bmul@multiplicand
  2532  0234  0836               	movf	GBS_Stepper_Exe@sBufferX^(0+128),w
  2533  0235  3E4E               	addlw	78
  2534  0236  0084               	movwf	4
  2535  0237  0800               	movf	0,w
  2536  0238  120A  158A  2065  120A  118A  	fcall	i1___bmul
  2537  023D  1683               	bsf	3,5	;RP0=1, select bank1
  2538  023E  1303               	bcf	3,6	;RP1=0, select bank1
  2539  023F  0736               	addwf	GBS_Stepper_Exe@sBufferX^(0+128),w
  2540  0240  00B7               	movwf	??_GBS_Stepper_Exe^(0+128)
  2541  0241  0837               	movf	??_GBS_Stepper_Exe^(0+128),w
  2542  0242  3E09               	addlw	9
  2543  0243  0084               	movwf	4
  2544  0244  1783               	bsf	3,7	;select IRP bank2
  2545  0245  0800               	movf	0,w
  2546  0246  00B8               	movwf	(??_GBS_Stepper_Exe+1)^(0+128)
  2547  0247  0A84               	incf	4,f
  2548  0248  0800               	movf	0,w
  2549  0249  00B9               	movwf	((??_GBS_Stepper_Exe+1)^(0+128)+1)
  2550  024A  0A84               	incf	4,f
  2551  024B  0800               	movf	0,w
  2552  024C  00BA               	movwf	((??_GBS_Stepper_Exe+1)^(0+128)+2)
  2553  024D  0A84               	incf	4,f
  2554  024E  0800               	movf	0,w
  2555  024F  00BB               	movwf	((??_GBS_Stepper_Exe+1)^(0+128)+3)
  2556  0250  301A               	movlw	26
  2557  0251  00FF               	movwf	btemp+1
  2558  0252  087F               	movf	btemp+1,w
  2559  0253  00F7               	movwf	i1___bmul@multiplicand
  2560  0254  0836               	movf	GBS_Stepper_Exe@sBufferX^(0+128),w
  2561  0255  3E4E               	addlw	78
  2562  0256  0084               	movwf	4
  2563  0257  0800               	movf	0,w
  2564  0258  120A  158A  2065  120A  118A  	fcall	i1___bmul
  2565  025D  1683               	bsf	3,5	;RP0=1, select bank1
  2566  025E  1303               	bcf	3,6	;RP1=0, select bank1
  2567  025F  0736               	addwf	GBS_Stepper_Exe@sBufferX^(0+128),w
  2568  0260  00BC               	movwf	(??_GBS_Stepper_Exe+5)^(0+128)
  2569  0261  083C               	movf	(??_GBS_Stepper_Exe+5)^(0+128),w
  2570  0262  3E05               	addlw	5
  2571  0263  0084               	movwf	4
  2572  0264  1783               	bsf	3,7	;select IRP bank2
  2573  0265  0800               	movf	0,w
  2574  0266  00BD               	movwf	(??_GBS_Stepper_Exe+6)^(0+128)
  2575  0267  0A84               	incf	4,f
  2576  0268  0800               	movf	0,w
  2577  0269  00BE               	movwf	((??_GBS_Stepper_Exe+6)^(0+128)+1)
  2578  026A  0A84               	incf	4,f
  2579  026B  0800               	movf	0,w
  2580  026C  00BF               	movwf	((??_GBS_Stepper_Exe+6)^(0+128)+2)
  2581  026D  0A84               	incf	4,f
  2582  026E  0800               	movf	0,w
  2583  026F  00C0               	movwf	((??_GBS_Stepper_Exe+6)^(0+128)+3)
  2584  0270  301A               	movlw	26
  2585  0271  00FF               	movwf	btemp+1
  2586  0272  087F               	movf	btemp+1,w
  2587  0273  00F7               	movwf	i1___bmul@multiplicand
  2588  0274  0836               	movf	GBS_Stepper_Exe@sBufferX^(0+128),w
  2589  0275  3E4E               	addlw	78
  2590  0276  0084               	movwf	4
  2591  0277  0800               	movf	0,w
  2592  0278  120A  158A  2065  120A  118A  	fcall	i1___bmul
  2593  027D  1683               	bsf	3,5	;RP0=1, select bank1
  2594  027E  1303               	bcf	3,6	;RP1=0, select bank1
  2595  027F  0736               	addwf	GBS_Stepper_Exe@sBufferX^(0+128),w
  2596  0280  00C1               	movwf	(??_GBS_Stepper_Exe+10)^(0+128)
  2597  0281  0A41               	incf	(??_GBS_Stepper_Exe+10)^(0+128),w
  2598  0282  0084               	movwf	4
  2599  0283  1783               	bsf	3,7	;select IRP bank2
  2600  0284  0800               	movf	0,w
  2601  0285  00C2               	movwf	(??_GBS_Stepper_Exe+11)^(0+128)
  2602  0286  0A84               	incf	4,f
  2603  0287  0800               	movf	0,w
  2604  0288  00C3               	movwf	((??_GBS_Stepper_Exe+11)^(0+128)+1)
  2605  0289  0A84               	incf	4,f
  2606  028A  0800               	movf	0,w
  2607  028B  00C4               	movwf	((??_GBS_Stepper_Exe+11)^(0+128)+2)
  2608  028C  0A84               	incf	4,f
  2609  028D  0800               	movf	0,w
  2610  028E  00C5               	movwf	((??_GBS_Stepper_Exe+11)^(0+128)+3)
  2611  028F  0842               	movf	(??_GBS_Stepper_Exe+11)^(0+128),w
  2612  0290  07BD               	addwf	(??_GBS_Stepper_Exe+6)^(0+128),f
  2613  0291  0843               	movf	(??_GBS_Stepper_Exe+12)^(0+128),w
  2614  0292  1803               	skipnc
  2615  0293  0F43               	incfsz	(??_GBS_Stepper_Exe+12)^(0+128),w
  2616  0294  2A96               	goto	u235_20
  2617  0295  2A97               	goto	u235_21
  2618  0296                     u235_20:
  2619  0296  07BE               	addwf	((??_GBS_Stepper_Exe+6)^(0+128)+1),f
  2620  0297                     u235_21:
  2621  0297  0844               	movf	(??_GBS_Stepper_Exe+13)^(0+128),w
  2622  0298  1803               	skipnc
  2623  0299  0F44               	incfsz	(??_GBS_Stepper_Exe+13)^(0+128),w
  2624  029A  2A9C               	goto	u235_22
  2625  029B  2A9D               	goto	u235_23
  2626  029C                     u235_22:
  2627  029C  07BF               	addwf	((??_GBS_Stepper_Exe+6)^(0+128)+2),f
  2628  029D                     u235_23:
  2629  029D  0845               	movf	(??_GBS_Stepper_Exe+14)^(0+128),w
  2630  029E  1803               	skipnc
  2631  029F  0A45               	incf	(??_GBS_Stepper_Exe+14)^(0+128),w
  2632  02A0  07C0               	addwf	((??_GBS_Stepper_Exe+6)^(0+128)+3),f
  2633  02A1  083D               	movf	(??_GBS_Stepper_Exe+6)^(0+128),w
  2634  02A2  07B8               	addwf	(??_GBS_Stepper_Exe+1)^(0+128),f
  2635  02A3  083E               	movf	(??_GBS_Stepper_Exe+7)^(0+128),w
  2636  02A4  1803               	skipnc
  2637  02A5  0F3E               	incfsz	(??_GBS_Stepper_Exe+7)^(0+128),w
  2638  02A6  2AA8               	goto	u236_20
  2639  02A7  2AA9               	goto	u236_21
  2640  02A8                     u236_20:
  2641  02A8  07B9               	addwf	((??_GBS_Stepper_Exe+1)^(0+128)+1),f
  2642  02A9                     u236_21:
  2643  02A9  083F               	movf	(??_GBS_Stepper_Exe+8)^(0+128),w
  2644  02AA  1803               	skipnc
  2645  02AB  0F3F               	incfsz	(??_GBS_Stepper_Exe+8)^(0+128),w
  2646  02AC  2AAE               	goto	u236_22
  2647  02AD  2AAF               	goto	u236_23
  2648  02AE                     u236_22:
  2649  02AE  07BA               	addwf	((??_GBS_Stepper_Exe+1)^(0+128)+2),f
  2650  02AF                     u236_23:
  2651  02AF  0840               	movf	(??_GBS_Stepper_Exe+9)^(0+128),w
  2652  02B0  1803               	skipnc
  2653  02B1  0A40               	incf	(??_GBS_Stepper_Exe+9)^(0+128),w
  2654  02B2  07BB               	addwf	((??_GBS_Stepper_Exe+1)^(0+128)+3),f
  2655  02B3  083B               	movf	(??_GBS_Stepper_Exe+4)^(0+128),w
  2656  02B4  043A               	iorwf	(??_GBS_Stepper_Exe+3)^(0+128),w
  2657  02B5  0439               	iorwf	(??_GBS_Stepper_Exe+2)^(0+128),w
  2658  02B6  0438               	iorwf	(??_GBS_Stepper_Exe+1)^(0+128),w
  2659  02B7  1D03               	skipz
  2660  02B8  2ABA               	goto	u237_21
  2661  02B9  2ABB               	goto	u237_20
  2662  02BA                     u237_21:
  2663  02BA  2C35               	goto	i1l2036
  2664  02BB                     u237_20:
  2665  02BB                     i1l2024:
  2666                           
  2667                           ;../gbs8/driver/scr/gbs8_stepper.c: 211:             {;../gbs8/driver/scr/gbs8_stepper.c
      +                          : 213:                 if (sBufferX->buffer[(sBufferX->head+1)%3].flag==2)
  2668  02BB  301A               	movlw	26
  2669  02BC  00FF               	movwf	btemp+1
  2670  02BD  087F               	movf	btemp+1,w
  2671  02BE  00F7               	movwf	i1___bmul@multiplicand
  2672  02BF  0836               	movf	GBS_Stepper_Exe@sBufferX^(0+128),w
  2673  02C0  3E4E               	addlw	78
  2674  02C1  0084               	movwf	4
  2675  02C2  0800               	movf	0,w
  2676  02C3  3E01               	addlw	1
  2677  02C4  00F3               	movwf	i1___awmod@dividend
  2678  02C5  3000               	movlw	0
  2679  02C6  1803               	skipnc
  2680  02C7  3001               	movlw	1
  2681  02C8  00F4               	movwf	i1___awmod@dividend+1
  2682  02C9  3003               	movlw	3
  2683  02CA  00F1               	movwf	i1___awmod@divisor
  2684  02CB  3000               	movlw	0
  2685  02CC  00F2               	movwf	i1___awmod@divisor+1
  2686  02CD  120A  158A  21B3  120A  118A  	fcall	i1___awmod
  2687  02D2  0871               	movf	?i1___awmod,w
  2688  02D3  120A  158A  2065  120A  118A  	fcall	i1___bmul
  2689  02D8  1683               	bsf	3,5	;RP0=1, select bank1
  2690  02D9  1303               	bcf	3,6	;RP1=0, select bank1
  2691  02DA  0736               	addwf	GBS_Stepper_Exe@sBufferX^(0+128),w
  2692  02DB  00B7               	movwf	??_GBS_Stepper_Exe^(0+128)
  2693  02DC  0837               	movf	??_GBS_Stepper_Exe^(0+128),w
  2694  02DD  3E19               	addlw	25
  2695  02DE  0084               	movwf	4
  2696  02DF  3002               	movlw	2
  2697  02E0  1783               	bsf	3,7	;select IRP bank2
  2698  02E1  0600               	xorwf	0,w
  2699  02E2  1D03               	btfss	3,2
  2700  02E3  2AE5               	goto	u238_21
  2701  02E4  2AE6               	goto	u238_20
  2702  02E5                     u238_21:
  2703  02E5  2C32               	goto	i1l2034
  2704  02E6                     u238_20:
  2705  02E6                     i1l2026:
  2706                           
  2707                           ;../gbs8/driver/scr/gbs8_stepper.c: 214:                 {;../gbs8/driver/scr/gbs8_stepp
      +                          er.c: 215:                     sBufferX->head = (sBufferX->head+1)%3;
  2708  02E6  3003               	movlw	3
  2709  02E7  00F1               	movwf	i1___awmod@divisor
  2710  02E8  3000               	movlw	0
  2711  02E9  00F2               	movwf	i1___awmod@divisor+1
  2712  02EA  0836               	movf	GBS_Stepper_Exe@sBufferX^(0+128),w
  2713  02EB  3E4E               	addlw	78
  2714  02EC  0084               	movwf	4
  2715  02ED  0800               	movf	0,w
  2716  02EE  3E01               	addlw	1
  2717  02EF  00F3               	movwf	i1___awmod@dividend
  2718  02F0  3000               	movlw	0
  2719  02F1  1803               	skipnc
  2720  02F2  3001               	movlw	1
  2721  02F3  00F4               	movwf	i1___awmod@dividend+1
  2722  02F4  120A  158A  21B3  120A  118A  	fcall	i1___awmod
  2723  02F9  0871               	movf	?i1___awmod,w
  2724  02FA  00FF               	movwf	btemp+1
  2725  02FB  1683               	bsf	3,5	;RP0=1, select bank1
  2726  02FC  1303               	bcf	3,6	;RP1=0, select bank1
  2727  02FD  0836               	movf	GBS_Stepper_Exe@sBufferX^(0+128),w
  2728  02FE  3E4E               	addlw	78
  2729  02FF  0084               	movwf	4
  2730  0300  087F               	movf	btemp+1,w
  2731  0301  1783               	bsf	3,7	;select IRP bank2
  2732  0302  0080               	movwf	0
  2733                           
  2734                           ;../gbs8/driver/scr/gbs8_stepper.c: 216:                     sBufferX->buffer[sBufferX->
      +                          head].flag = 3;
  2735  0303  301A               	movlw	26
  2736  0304  00FF               	movwf	btemp+1
  2737  0305  087F               	movf	btemp+1,w
  2738  0306  00F7               	movwf	i1___bmul@multiplicand
  2739  0307  0836               	movf	GBS_Stepper_Exe@sBufferX^(0+128),w
  2740  0308  3E4E               	addlw	78
  2741  0309  0084               	movwf	4
  2742  030A  0800               	movf	0,w
  2743  030B  120A  158A  2065  120A  118A  	fcall	i1___bmul
  2744  0310  1683               	bsf	3,5	;RP0=1, select bank1
  2745  0311  1303               	bcf	3,6	;RP1=0, select bank1
  2746  0312  0736               	addwf	GBS_Stepper_Exe@sBufferX^(0+128),w
  2747  0313  00B7               	movwf	??_GBS_Stepper_Exe^(0+128)
  2748  0314  0837               	movf	??_GBS_Stepper_Exe^(0+128),w
  2749  0315  3E19               	addlw	25
  2750  0316  0084               	movwf	4
  2751  0317  3003               	movlw	3
  2752  0318  00FF               	movwf	btemp+1
  2753  0319  087F               	movf	btemp+1,w
  2754  031A  1783               	bsf	3,7	;select IRP bank2
  2755  031B  0080               	movwf	0
  2756  031C                     i1l2028:
  2757                           
  2758                           ;../gbs8/driver/scr/gbs8_stepper.c: 217:                     if (stepperX->state==0)
  2759  031C  0862               	movf	GBS_Stepper_Exe@stepperX^(0+128),w
  2760  031D  0084               	movwf	4
  2761  031E  0800               	movf	0,w
  2762  031F  1D03               	btfss	3,2
  2763  0320  2B22               	goto	u239_21
  2764  0321  2B23               	goto	u239_20
  2765  0322                     u239_21:
  2766  0322  2C35               	goto	i1l2036
  2767  0323                     u239_20:
  2768  0323                     i1l2030:
  2769                           
  2770                           ;../gbs8/driver/scr/gbs8_stepper.c: 218:                     {;../gbs8/driver/scr/gbs8_s
      +                          tepper.c: 219:                         stepperX->cntsLast = 10000 / sqrt(((sBufferX->buf
      +                          fer[sBufferX->head].maxSpeed)*(sBufferX->buffer[sBufferX->head].maxSpeed)) + 2*sBufferX-
      +                          >buffer[sBufferX->head].acc);
  2771  0323  3046               	movlw	70
  2772  0324  1283               	bcf	3,5	;RP0=0, select bank0
  2773  0325  1303               	bcf	3,6	;RP1=0, select bank0
  2774  0326  00EB               	movwf	___fldiv@b+3
  2775  0327  301C               	movlw	28
  2776  0328  00EA               	movwf	___fldiv@b+2
  2777  0329  3040               	movlw	64
  2778  032A  00E9               	movwf	___fldiv@b+1
  2779  032B  3000               	movlw	0
  2780  032C  00E8               	movwf	___fldiv@b
  2781  032D  301A               	movlw	26
  2782  032E  00FF               	movwf	btemp+1
  2783  032F  087F               	movf	btemp+1,w
  2784  0330  00F7               	movwf	i1___bmul@multiplicand
  2785  0331  1683               	bsf	3,5	;RP0=1, select bank1
  2786  0332  1303               	bcf	3,6	;RP1=0, select bank1
  2787  0333  0836               	movf	GBS_Stepper_Exe@sBufferX^(0+128),w
  2788  0334  3E4E               	addlw	78
  2789  0335  0084               	movwf	4
  2790  0336  0800               	movf	0,w
  2791  0337  120A  158A  2065  120A  118A  	fcall	i1___bmul
  2792  033C  1683               	bsf	3,5	;RP0=1, select bank1
  2793  033D  1303               	bcf	3,6	;RP1=0, select bank1
  2794  033E  0736               	addwf	GBS_Stepper_Exe@sBufferX^(0+128),w
  2795  033F  00B7               	movwf	??_GBS_Stepper_Exe^(0+128)
  2796  0340  0837               	movf	??_GBS_Stepper_Exe^(0+128),w
  2797  0341  3E0D               	addlw	13
  2798  0342  0084               	movwf	4
  2799  0343  1783               	bsf	3,7	;select IRP bank2
  2800  0344  0800               	movf	0,w
  2801  0345  00B8               	movwf	(??_GBS_Stepper_Exe+1)^(0+128)
  2802  0346  0A84               	incf	4,f
  2803  0347  0800               	movf	0,w
  2804  0348  00B9               	movwf	((??_GBS_Stepper_Exe+1)^(0+128)+1)
  2805  0349  0A84               	incf	4,f
  2806  034A  0800               	movf	0,w
  2807  034B  00BA               	movwf	((??_GBS_Stepper_Exe+1)^(0+128)+2)
  2808  034C  0A84               	incf	4,f
  2809  034D  0800               	movf	0,w
  2810  034E  00BB               	movwf	((??_GBS_Stepper_Exe+1)^(0+128)+3)
  2811  034F  3001               	movlw	1
  2812  0350                     u240_25:
  2813  0350  1003               	clrc
  2814  0351  0DB8               	rlf	(??_GBS_Stepper_Exe+1)^(0+128),f
  2815  0352  0DB9               	rlf	((??_GBS_Stepper_Exe+1)^(0+128)+1),f
  2816  0353  0DBA               	rlf	((??_GBS_Stepper_Exe+1)^(0+128)+2),f
  2817  0354  0DBB               	rlf	((??_GBS_Stepper_Exe+1)^(0+128)+3),f
  2818  0355                     u240_20:
  2819  0355  3EFF               	addlw	-1
  2820  0356  1D03               	skipz
  2821  0357  2B50               	goto	u240_25
  2822  0358  301A               	movlw	26
  2823  0359  00FF               	movwf	btemp+1
  2824  035A  087F               	movf	btemp+1,w
  2825  035B  00F7               	movwf	i1___bmul@multiplicand
  2826  035C  0836               	movf	GBS_Stepper_Exe@sBufferX^(0+128),w
  2827  035D  3E4E               	addlw	78
  2828  035E  0084               	movwf	4
  2829  035F  0800               	movf	0,w
  2830  0360  120A  158A  2065  120A  118A  	fcall	i1___bmul
  2831  0365  1683               	bsf	3,5	;RP0=1, select bank1
  2832  0366  1303               	bcf	3,6	;RP1=0, select bank1
  2833  0367  0736               	addwf	GBS_Stepper_Exe@sBufferX^(0+128),w
  2834  0368  00BC               	movwf	(??_GBS_Stepper_Exe+5)^(0+128)
  2835  0369  083C               	movf	(??_GBS_Stepper_Exe+5)^(0+128),w
  2836  036A  3E15               	addlw	21
  2837  036B  0084               	movwf	4
  2838  036C  1783               	bsf	3,7	;select IRP bank2
  2839  036D  0800               	movf	0,w
  2840  036E  1283               	bcf	3,5	;RP0=0, select bank0
  2841  036F  1303               	bcf	3,6	;RP1=0, select bank0
  2842  0370  00B1               	movwf	___lmul@multiplicand
  2843  0371  0A84               	incf	4,f
  2844  0372  0800               	movf	0,w
  2845  0373  00B2               	movwf	___lmul@multiplicand+1
  2846  0374  0A84               	incf	4,f
  2847  0375  0800               	movf	0,w
  2848  0376  00B3               	movwf	___lmul@multiplicand+2
  2849  0377  0A84               	incf	4,f
  2850  0378  0800               	movf	0,w
  2851  0379  00B4               	movwf	___lmul@multiplicand+3
  2852  037A  301A               	movlw	26
  2853  037B  00FF               	movwf	btemp+1
  2854  037C  087F               	movf	btemp+1,w
  2855  037D  00F7               	movwf	i1___bmul@multiplicand
  2856  037E  1683               	bsf	3,5	;RP0=1, select bank1
  2857  037F  1303               	bcf	3,6	;RP1=0, select bank1
  2858  0380  0836               	movf	GBS_Stepper_Exe@sBufferX^(0+128),w
  2859  0381  3E4E               	addlw	78
  2860  0382  0084               	movwf	4
  2861  0383  0800               	movf	0,w
  2862  0384  120A  158A  2065  120A  118A  	fcall	i1___bmul
  2863  0389  1683               	bsf	3,5	;RP0=1, select bank1
  2864  038A  1303               	bcf	3,6	;RP1=0, select bank1
  2865  038B  0736               	addwf	GBS_Stepper_Exe@sBufferX^(0+128),w
  2866  038C  00BD               	movwf	(??_GBS_Stepper_Exe+6)^(0+128)
  2867  038D  083D               	movf	(??_GBS_Stepper_Exe+6)^(0+128),w
  2868  038E  3E15               	addlw	21
  2869  038F  0084               	movwf	4
  2870  0390  1783               	bsf	3,7	;select IRP bank2
  2871  0391  0800               	movf	0,w
  2872  0392  1283               	bcf	3,5	;RP0=0, select bank0
  2873  0393  1303               	bcf	3,6	;RP1=0, select bank0
  2874  0394  00AD               	movwf	___lmul@multiplier
  2875  0395  0A84               	incf	4,f
  2876  0396  0800               	movf	0,w
  2877  0397  00AE               	movwf	___lmul@multiplier+1
  2878  0398  0A84               	incf	4,f
  2879  0399  0800               	movf	0,w
  2880  039A  00AF               	movwf	___lmul@multiplier+2
  2881  039B  0A84               	incf	4,f
  2882  039C  0800               	movf	0,w
  2883  039D  00B0               	movwf	___lmul@multiplier+3
  2884  039E  120A  158A  216B  120A  118A  	fcall	___lmul
  2885  03A3  1283               	bcf	3,5	;RP0=0, select bank0
  2886  03A4  1303               	bcf	3,6	;RP1=0, select bank0
  2887  03A5  082D               	movf	?___lmul,w
  2888  03A6  1683               	bsf	3,5	;RP0=1, select bank1
  2889  03A7  1303               	bcf	3,6	;RP1=0, select bank1
  2890  03A8  07B8               	addwf	(??_GBS_Stepper_Exe+1)^(0+128),f
  2891  03A9  1283               	bcf	3,5	;RP0=0, select bank0
  2892  03AA  1303               	bcf	3,6	;RP1=0, select bank0
  2893  03AB  082E               	movf	?___lmul+1,w
  2894  03AC  1803               	skipnc
  2895  03AD  0F2E               	incfsz	?___lmul+1,w
  2896  03AE  2BB0               	goto	u241_20
  2897  03AF  2BB3               	goto	u241_21
  2898  03B0                     u241_20:
  2899  03B0  1683               	bsf	3,5	;RP0=1, select bank1
  2900  03B1  1303               	bcf	3,6	;RP1=0, select bank1
  2901  03B2  07B9               	addwf	((??_GBS_Stepper_Exe+1)^(0+128)+1),f
  2902  03B3                     u241_21:
  2903  03B3  1283               	bcf	3,5	;RP0=0, select bank0
  2904  03B4  1303               	bcf	3,6	;RP1=0, select bank0
  2905  03B5  082F               	movf	?___lmul+2,w
  2906  03B6  1803               	skipnc
  2907  03B7  0F2F               	incfsz	?___lmul+2,w
  2908  03B8  2BBA               	goto	u241_22
  2909  03B9  2BBD               	goto	u241_23
  2910  03BA                     u241_22:
  2911  03BA  1683               	bsf	3,5	;RP0=1, select bank1
  2912  03BB  1303               	bcf	3,6	;RP1=0, select bank1
  2913  03BC  07BA               	addwf	((??_GBS_Stepper_Exe+1)^(0+128)+2),f
  2914  03BD                     u241_23:
  2915  03BD  1283               	bcf	3,5	;RP0=0, select bank0
  2916  03BE  1303               	bcf	3,6	;RP1=0, select bank0
  2917  03BF  0830               	movf	?___lmul+3,w
  2918  03C0  1803               	skipnc
  2919  03C1  0A30               	incf	?___lmul+3,w
  2920  03C2  1683               	bsf	3,5	;RP0=1, select bank1
  2921  03C3  1303               	bcf	3,6	;RP1=0, select bank1
  2922  03C4  07BB               	addwf	((??_GBS_Stepper_Exe+1)^(0+128)+3),f
  2923  03C5  083B               	movf	(??_GBS_Stepper_Exe+4)^(0+128),w
  2924  03C6  1283               	bcf	3,5	;RP0=0, select bank0
  2925  03C7  1303               	bcf	3,6	;RP1=0, select bank0
  2926  03C8  00BC               	movwf	___xxtofl@val+3
  2927  03C9  1683               	bsf	3,5	;RP0=1, select bank1
  2928  03CA  1303               	bcf	3,6	;RP1=0, select bank1
  2929  03CB  083A               	movf	(??_GBS_Stepper_Exe+3)^(0+128),w
  2930  03CC  1283               	bcf	3,5	;RP0=0, select bank0
  2931  03CD  1303               	bcf	3,6	;RP1=0, select bank0
  2932  03CE  00BB               	movwf	___xxtofl@val+2
  2933  03CF  1683               	bsf	3,5	;RP0=1, select bank1
  2934  03D0  1303               	bcf	3,6	;RP1=0, select bank1
  2935  03D1  0839               	movf	(??_GBS_Stepper_Exe+2)^(0+128),w
  2936  03D2  1283               	bcf	3,5	;RP0=0, select bank0
  2937  03D3  1303               	bcf	3,6	;RP1=0, select bank0
  2938  03D4  00BA               	movwf	___xxtofl@val+1
  2939  03D5  1683               	bsf	3,5	;RP0=1, select bank1
  2940  03D6  1303               	bcf	3,6	;RP1=0, select bank1
  2941  03D7  0838               	movf	(??_GBS_Stepper_Exe+1)^(0+128),w
  2942  03D8  1283               	bcf	3,5	;RP0=0, select bank0
  2943  03D9  1303               	bcf	3,6	;RP1=0, select bank0
  2944  03DA  00B9               	movwf	___xxtofl@val
  2945  03DB  3000               	movlw	0
  2946  03DC  120A  158A  22CF  120A  118A  	fcall	___xxtofl
  2947  03E1  1283               	bcf	3,5	;RP0=0, select bank0
  2948  03E2  1303               	bcf	3,6	;RP1=0, select bank0
  2949  03E3  083C               	movf	?___xxtofl+3,w
  2950  03E4  00CA               	movwf	sqrt@a+3
  2951  03E5  083B               	movf	?___xxtofl+2,w
  2952  03E6  00C9               	movwf	sqrt@a+2
  2953  03E7  083A               	movf	?___xxtofl+1,w
  2954  03E8  00C8               	movwf	sqrt@a+1
  2955  03E9  0839               	movf	?___xxtofl,w
  2956  03EA  00C7               	movwf	sqrt@a
  2957  03EB  120A  158A  238B  120A  118A  	fcall	_sqrt
  2958  03F0  1283               	bcf	3,5	;RP0=0, select bank0
  2959  03F1  1303               	bcf	3,6	;RP1=0, select bank0
  2960  03F2  084A               	movf	?_sqrt+3,w
  2961  03F3  00E7               	movwf	___fldiv@a+3
  2962  03F4  0849               	movf	?_sqrt+2,w
  2963  03F5  00E6               	movwf	___fldiv@a+2
  2964  03F6  0848               	movf	?_sqrt+1,w
  2965  03F7  00E5               	movwf	___fldiv@a+1
  2966  03F8  0847               	movf	?_sqrt,w
  2967  03F9  00E4               	movwf	___fldiv@a
  2968  03FA  120A  158A  256B  120A  118A  	fcall	___fldiv
  2969  03FF  1283               	bcf	3,5	;RP0=0, select bank0
  2970  0400  1303               	bcf	3,6	;RP1=0, select bank0
  2971  0401  0867               	movf	?___fldiv+3,w
  2972  0402  1683               	bsf	3,5	;RP0=1, select bank1
  2973  0403  1303               	bcf	3,6	;RP1=0, select bank1
  2974  0404  00B5               	movwf	(___fltol@f1+3)^(0+128)
  2975  0405  1283               	bcf	3,5	;RP0=0, select bank0
  2976  0406  1303               	bcf	3,6	;RP1=0, select bank0
  2977  0407  0866               	movf	?___fldiv+2,w
  2978  0408  1683               	bsf	3,5	;RP0=1, select bank1
  2979  0409  1303               	bcf	3,6	;RP1=0, select bank1
  2980  040A  00B4               	movwf	(___fltol@f1+2)^(0+128)
  2981  040B  1283               	bcf	3,5	;RP0=0, select bank0
  2982  040C  1303               	bcf	3,6	;RP1=0, select bank0
  2983  040D  0865               	movf	?___fldiv+1,w
  2984  040E  1683               	bsf	3,5	;RP0=1, select bank1
  2985  040F  1303               	bcf	3,6	;RP1=0, select bank1
  2986  0410  00B3               	movwf	(___fltol@f1+1)^(0+128)
  2987  0411  1283               	bcf	3,5	;RP0=0, select bank0
  2988  0412  1303               	bcf	3,6	;RP1=0, select bank0
  2989  0413  0864               	movf	?___fldiv,w
  2990  0414  1683               	bsf	3,5	;RP0=1, select bank1
  2991  0415  1303               	bcf	3,6	;RP1=0, select bank1
  2992  0416  00B2               	movwf	___fltol@f1^(0+128)
  2993  0417  120A  118A  2029  120A  118A  	fcall	___fltol
  2994  041C  1683               	bsf	3,5	;RP0=1, select bank1
  2995  041D  1303               	bcf	3,6	;RP1=0, select bank1
  2996  041E  0862               	movf	GBS_Stepper_Exe@stepperX^(0+128),w
  2997  041F  3E07               	addlw	7
  2998  0420  0084               	movwf	4
  2999  0421  0832               	movf	?___fltol^(0+128),w
  3000  0422  1783               	bsf	3,7	;select IRP bank2
  3001  0423  0080               	movwf	0
  3002  0424  0A84               	incf	4,f
  3003  0425  0833               	movf	(?___fltol+1)^(0+128),w
  3004  0426  0080               	movwf	0
  3005  0427  0A84               	incf	4,f
  3006  0428  0834               	movf	(?___fltol+2)^(0+128),w
  3007  0429  0080               	movwf	0
  3008  042A  0A84               	incf	4,f
  3009  042B  0835               	movf	(?___fltol+3)^(0+128),w
  3010  042C  0080               	movwf	0
  3011  042D                     i1l2032:
  3012                           
  3013                           ;../gbs8/driver/scr/gbs8_stepper.c: 220:                         stepperX->state = 1;
  3014  042D  0862               	movf	GBS_Stepper_Exe@stepperX^(0+128),w
  3015  042E  0084               	movwf	4
  3016  042F  0180               	clrf	0
  3017  0430  0A80               	incf	0,f
  3018  0431  2C35               	goto	i1l2036
  3019  0432                     i1l2034:
  3020                           
  3021                           ;../gbs8/driver/scr/gbs8_stepper.c: 224:                 {;../gbs8/driver/scr/gbs8_stepp
      +                          er.c: 225:                     stepperX->state = 0;
  3022  0432  0862               	movf	GBS_Stepper_Exe@stepperX^(0+128),w
  3023  0433  0084               	movwf	4
  3024  0434  0180               	clrf	0
  3025  0435                     i1l2036:
  3026                           
  3027                           ;../gbs8/driver/scr/gbs8_stepper.c: 231:             {;../gbs8/driver/scr/gbs8_stepper.c
      +                          : 232:                 if (sBufferX->buffer[sBufferX->head].acc_until>=0)
  3028  0435  301A               	movlw	26
  3029  0436  00FF               	movwf	btemp+1
  3030  0437  087F               	movf	btemp+1,w
  3031  0438  00F7               	movwf	i1___bmul@multiplicand
  3032  0439  0836               	movf	GBS_Stepper_Exe@sBufferX^(0+128),w
  3033  043A  3E4E               	addlw	78
  3034  043B  0084               	movwf	4
  3035  043C  0800               	movf	0,w
  3036  043D  120A  158A  2065  120A  118A  	fcall	i1___bmul
  3037  0442  1683               	bsf	3,5	;RP0=1, select bank1
  3038  0443  1303               	bcf	3,6	;RP1=0, select bank1
  3039  0444  0736               	addwf	GBS_Stepper_Exe@sBufferX^(0+128),w
  3040  0445  00B7               	movwf	??_GBS_Stepper_Exe^(0+128)
  3041  0446  0837               	movf	??_GBS_Stepper_Exe^(0+128),w
  3042  0447  3E19               	addlw	25
  3043  0448  0084               	movwf	4
  3044  0449  3003               	movlw	3
  3045  044A  1783               	bsf	3,7	;select IRP bank2
  3046  044B  0600               	xorwf	0,w
  3047  044C  1D03               	btfss	3,2
  3048  044D  2C4F               	goto	u242_21
  3049  044E  2C50               	goto	u242_20
  3050  044F                     u242_21:
  3051  044F  2FE6               	goto	i1l187
  3052  0450                     u242_20:
  3053  0450                     i1l2038:
  3054                           
  3055                           ;../gbs8/driver/scr/gbs8_stepper.c: 233:                 {;../gbs8/driver/scr/gbs8_stepp
      +                          er.c: 234:                     stepperX->pinState = 1;
  3056  0450  0862               	movf	GBS_Stepper_Exe@stepperX^(0+128),w
  3057  0451  3E0B               	addlw	11
  3058  0452  0084               	movwf	4
  3059  0453  0180               	clrf	0
  3060  0454  0A80               	incf	0,f
  3061  0455                     i1l2040:
  3062                           
  3063                           ;../gbs8/driver/scr/gbs8_stepper.c: 235:                     stepperX->cntsLast = steppe
      +                          rX->cntsLast + 1*((stepperX->cntsLast)*(stepperX->cntsLast)*(stepperX->cntsLast))*sBuffe
      +                          rX->buffer[sBufferX->head].acc/((10000)*(10000)) + ((stepperX->cntsLast)*(stepperX->cnts
      +                          Last)*(stepperX->cntsLast))*((stepperX->cntsLast)*(stepperX->cntsLast))*((sBufferX->buff
      +                          er[sBufferX->head].acc/((10000)*(10000)))*(sBufferX->buffer[sBufferX->head].acc/((10000)
      +                          *(10000))));
  3064  0455  30FF               	movlw	255
  3065  0456  1283               	bcf	3,5	;RP0=0, select bank0
  3066  0457  1303               	bcf	3,6	;RP1=0, select bank0
  3067  0458  00A3               	movwf	___lldiv@divisor+3
  3068  0459  30FF               	movlw	255
  3069  045A  00A2               	movwf	___lldiv@divisor+2
  3070  045B  30E1               	movlw	225
  3071  045C  00A1               	movwf	___lldiv@divisor+1
  3072  045D  3000               	movlw	0
  3073  045E  00A0               	movwf	___lldiv@divisor
  3074  045F  301A               	movlw	26
  3075  0460  00FF               	movwf	btemp+1
  3076  0461  087F               	movf	btemp+1,w
  3077  0462  00F7               	movwf	i1___bmul@multiplicand
  3078  0463  1683               	bsf	3,5	;RP0=1, select bank1
  3079  0464  1303               	bcf	3,6	;RP1=0, select bank1
  3080  0465  0836               	movf	GBS_Stepper_Exe@sBufferX^(0+128),w
  3081  0466  3E4E               	addlw	78
  3082  0467  0084               	movwf	4
  3083  0468  0800               	movf	0,w
  3084  0469  120A  158A  2065  120A  118A  	fcall	i1___bmul
  3085  046E  1683               	bsf	3,5	;RP0=1, select bank1
  3086  046F  1303               	bcf	3,6	;RP1=0, select bank1
  3087  0470  0736               	addwf	GBS_Stepper_Exe@sBufferX^(0+128),w
  3088  0471  00B7               	movwf	??_GBS_Stepper_Exe^(0+128)
  3089  0472  0837               	movf	??_GBS_Stepper_Exe^(0+128),w
  3090  0473  3E0D               	addlw	13
  3091  0474  0084               	movwf	4
  3092  0475  1783               	bsf	3,7	;select IRP bank2
  3093  0476  0800               	movf	0,w
  3094  0477  1283               	bcf	3,5	;RP0=0, select bank0
  3095  0478  1303               	bcf	3,6	;RP1=0, select bank0
  3096  0479  00A4               	movwf	___lldiv@dividend
  3097  047A  0A84               	incf	4,f
  3098  047B  0800               	movf	0,w
  3099  047C  00A5               	movwf	___lldiv@dividend+1
  3100  047D  0A84               	incf	4,f
  3101  047E  0800               	movf	0,w
  3102  047F  00A6               	movwf	___lldiv@dividend+2
  3103  0480  0A84               	incf	4,f
  3104  0481  0800               	movf	0,w
  3105  0482  00A7               	movwf	___lldiv@dividend+3
  3106  0483  120A  158A  2267  120A  118A  	fcall	___lldiv
  3107  0488  1283               	bcf	3,5	;RP0=0, select bank0
  3108  0489  1303               	bcf	3,6	;RP1=0, select bank0
  3109  048A  0823               	movf	?___lldiv+3,w
  3110  048B  00B0               	movwf	___lmul@multiplier+3
  3111  048C  0822               	movf	?___lldiv+2,w
  3112  048D  00AF               	movwf	___lmul@multiplier+2
  3113  048E  0821               	movf	?___lldiv+1,w
  3114  048F  00AE               	movwf	___lmul@multiplier+1
  3115  0490  0820               	movf	?___lldiv,w
  3116  0491  00AD               	movwf	___lmul@multiplier
  3117  0492  30FF               	movlw	255
  3118  0493  00A3               	movwf	___lldiv@divisor+3
  3119  0494  30FF               	movlw	255
  3120  0495  00A2               	movwf	___lldiv@divisor+2
  3121  0496  30E1               	movlw	225
  3122  0497  00A1               	movwf	___lldiv@divisor+1
  3123  0498  3000               	movlw	0
  3124  0499  00A0               	movwf	___lldiv@divisor
  3125  049A  301A               	movlw	26
  3126  049B  00FF               	movwf	btemp+1
  3127  049C  087F               	movf	btemp+1,w
  3128  049D  00F7               	movwf	i1___bmul@multiplicand
  3129  049E  1683               	bsf	3,5	;RP0=1, select bank1
  3130  049F  1303               	bcf	3,6	;RP1=0, select bank1
  3131  04A0  0836               	movf	GBS_Stepper_Exe@sBufferX^(0+128),w
  3132  04A1  3E4E               	addlw	78
  3133  04A2  0084               	movwf	4
  3134  04A3  1783               	bsf	3,7	;select IRP bank2
  3135  04A4  0800               	movf	0,w
  3136  04A5  120A  158A  2065  120A  118A  	fcall	i1___bmul
  3137  04AA  1683               	bsf	3,5	;RP0=1, select bank1
  3138  04AB  1303               	bcf	3,6	;RP1=0, select bank1
  3139  04AC  0736               	addwf	GBS_Stepper_Exe@sBufferX^(0+128),w
  3140  04AD  00B8               	movwf	(??_GBS_Stepper_Exe+1)^(0+128)
  3141  04AE  0838               	movf	(??_GBS_Stepper_Exe+1)^(0+128),w
  3142  04AF  3E0D               	addlw	13
  3143  04B0  0084               	movwf	4
  3144  04B1  1783               	bsf	3,7	;select IRP bank2
  3145  04B2  0800               	movf	0,w
  3146  04B3  1283               	bcf	3,5	;RP0=0, select bank0
  3147  04B4  1303               	bcf	3,6	;RP1=0, select bank0
  3148  04B5  00A4               	movwf	___lldiv@dividend
  3149  04B6  0A84               	incf	4,f
  3150  04B7  0800               	movf	0,w
  3151  04B8  00A5               	movwf	___lldiv@dividend+1
  3152  04B9  0A84               	incf	4,f
  3153  04BA  0800               	movf	0,w
  3154  04BB  00A6               	movwf	___lldiv@dividend+2
  3155  04BC  0A84               	incf	4,f
  3156  04BD  0800               	movf	0,w
  3157  04BE  00A7               	movwf	___lldiv@dividend+3
  3158  04BF  120A  158A  2267  120A  118A  	fcall	___lldiv
  3159  04C4  1283               	bcf	3,5	;RP0=0, select bank0
  3160  04C5  1303               	bcf	3,6	;RP1=0, select bank0
  3161  04C6  0823               	movf	?___lldiv+3,w
  3162  04C7  00B4               	movwf	___lmul@multiplicand+3
  3163  04C8  0822               	movf	?___lldiv+2,w
  3164  04C9  00B3               	movwf	___lmul@multiplicand+2
  3165  04CA  0821               	movf	?___lldiv+1,w
  3166  04CB  00B2               	movwf	___lmul@multiplicand+1
  3167  04CC  0820               	movf	?___lldiv,w
  3168  04CD  00B1               	movwf	___lmul@multiplicand
  3169  04CE  120A  158A  216B  120A  118A  	fcall	___lmul
  3170  04D3  1283               	bcf	3,5	;RP0=0, select bank0
  3171  04D4  1303               	bcf	3,6	;RP1=0, select bank0
  3172  04D5  0830               	movf	?___lmul+3,w
  3173  04D6  1683               	bsf	3,5	;RP0=1, select bank1
  3174  04D7  1303               	bcf	3,6	;RP1=0, select bank1
  3175  04D8  00C9               	movwf	(_GBS_Stepper_Exe$1422+3)^(0+128)
  3176  04D9  1283               	bcf	3,5	;RP0=0, select bank0
  3177  04DA  1303               	bcf	3,6	;RP1=0, select bank0
  3178  04DB  082F               	movf	?___lmul+2,w
  3179  04DC  1683               	bsf	3,5	;RP0=1, select bank1
  3180  04DD  1303               	bcf	3,6	;RP1=0, select bank1
  3181  04DE  00C8               	movwf	(_GBS_Stepper_Exe$1422+2)^(0+128)
  3182  04DF  1283               	bcf	3,5	;RP0=0, select bank0
  3183  04E0  1303               	bcf	3,6	;RP1=0, select bank0
  3184  04E1  082E               	movf	?___lmul+1,w
  3185  04E2  1683               	bsf	3,5	;RP0=1, select bank1
  3186  04E3  1303               	bcf	3,6	;RP1=0, select bank1
  3187  04E4  00C7               	movwf	(_GBS_Stepper_Exe$1422+1)^(0+128)
  3188  04E5  1283               	bcf	3,5	;RP0=0, select bank0
  3189  04E6  1303               	bcf	3,6	;RP1=0, select bank0
  3190  04E7  082D               	movf	?___lmul,w
  3191  04E8  1683               	bsf	3,5	;RP0=1, select bank1
  3192  04E9  1303               	bcf	3,6	;RP1=0, select bank1
  3193  04EA  00C6               	movwf	_GBS_Stepper_Exe$1422^(0+128)
  3194  04EB                     i1l2042:
  3195                           
  3196                           ;../gbs8/driver/scr/gbs8_stepper.c: 235:                     stepperX->cntsLast = steppe
      +                          rX->cntsLast + 1*((stepperX->cntsLast)*(stepperX->cntsLast)*(stepperX->cntsLast))*sBuffe
      +                          rX->buffer[sBufferX->head].acc/((10000)*(10000)) + ((stepperX->cntsLast)*(stepperX->cnts
      +                          Last)*(stepperX->cntsLast))*((stepperX->cntsLast)*(stepperX->cntsLast))*((sBufferX->buff
      +                          er[sBufferX->head].acc/((10000)*(10000)))*(sBufferX->buffer[sBufferX->head].acc/((10000)
      +                          *(10000))));
  3197  04EB  0849               	movf	(_GBS_Stepper_Exe$1422+3)^(0+128),w
  3198  04EC  1283               	bcf	3,5	;RP0=0, select bank0
  3199  04ED  1303               	bcf	3,6	;RP1=0, select bank0
  3200  04EE  00B0               	movwf	___lmul@multiplier+3
  3201  04EF  1683               	bsf	3,5	;RP0=1, select bank1
  3202  04F0  1303               	bcf	3,6	;RP1=0, select bank1
  3203  04F1  0848               	movf	(_GBS_Stepper_Exe$1422+2)^(0+128),w
  3204  04F2  1283               	bcf	3,5	;RP0=0, select bank0
  3205  04F3  1303               	bcf	3,6	;RP1=0, select bank0
  3206  04F4  00AF               	movwf	___lmul@multiplier+2
  3207  04F5  1683               	bsf	3,5	;RP0=1, select bank1
  3208  04F6  1303               	bcf	3,6	;RP1=0, select bank1
  3209  04F7  0847               	movf	(_GBS_Stepper_Exe$1422+1)^(0+128),w
  3210  04F8  1283               	bcf	3,5	;RP0=0, select bank0
  3211  04F9  1303               	bcf	3,6	;RP1=0, select bank0
  3212  04FA  00AE               	movwf	___lmul@multiplier+1
  3213  04FB  1683               	bsf	3,5	;RP0=1, select bank1
  3214  04FC  1303               	bcf	3,6	;RP1=0, select bank1
  3215  04FD  0846               	movf	_GBS_Stepper_Exe$1422^(0+128),w
  3216  04FE  1283               	bcf	3,5	;RP0=0, select bank0
  3217  04FF  1303               	bcf	3,6	;RP1=0, select bank0
  3218  0500  00AD               	movwf	___lmul@multiplier
  3219  0501  1683               	bsf	3,5	;RP0=1, select bank1
  3220  0502  1303               	bcf	3,6	;RP1=0, select bank1
  3221  0503  0862               	movf	GBS_Stepper_Exe@stepperX^(0+128),w
  3222  0504  3E07               	addlw	7
  3223  0505  0084               	movwf	4
  3224  0506  1783               	bsf	3,7	;select IRP bank2
  3225  0507  0800               	movf	0,w
  3226  0508  1283               	bcf	3,5	;RP0=0, select bank0
  3227  0509  1303               	bcf	3,6	;RP1=0, select bank0
  3228  050A  00B1               	movwf	___lmul@multiplicand
  3229  050B  0A84               	incf	4,f
  3230  050C  0800               	movf	0,w
  3231  050D  00B2               	movwf	___lmul@multiplicand+1
  3232  050E  0A84               	incf	4,f
  3233  050F  0800               	movf	0,w
  3234  0510  00B3               	movwf	___lmul@multiplicand+2
  3235  0511  0A84               	incf	4,f
  3236  0512  0800               	movf	0,w
  3237  0513  00B4               	movwf	___lmul@multiplicand+3
  3238  0514  120A  158A  216B  120A  118A  	fcall	___lmul
  3239  0519  1283               	bcf	3,5	;RP0=0, select bank0
  3240  051A  1303               	bcf	3,6	;RP1=0, select bank0
  3241  051B  0830               	movf	?___lmul+3,w
  3242  051C  1683               	bsf	3,5	;RP0=1, select bank1
  3243  051D  1303               	bcf	3,6	;RP1=0, select bank1
  3244  051E  00CD               	movwf	(_GBS_Stepper_Exe$1423+3)^(0+128)
  3245  051F  1283               	bcf	3,5	;RP0=0, select bank0
  3246  0520  1303               	bcf	3,6	;RP1=0, select bank0
  3247  0521  082F               	movf	?___lmul+2,w
  3248  0522  1683               	bsf	3,5	;RP0=1, select bank1
  3249  0523  1303               	bcf	3,6	;RP1=0, select bank1
  3250  0524  00CC               	movwf	(_GBS_Stepper_Exe$1423+2)^(0+128)
  3251  0525  1283               	bcf	3,5	;RP0=0, select bank0
  3252  0526  1303               	bcf	3,6	;RP1=0, select bank0
  3253  0527  082E               	movf	?___lmul+1,w
  3254  0528  1683               	bsf	3,5	;RP0=1, select bank1
  3255  0529  1303               	bcf	3,6	;RP1=0, select bank1
  3256  052A  00CB               	movwf	(_GBS_Stepper_Exe$1423+1)^(0+128)
  3257  052B  1283               	bcf	3,5	;RP0=0, select bank0
  3258  052C  1303               	bcf	3,6	;RP1=0, select bank0
  3259  052D  082D               	movf	?___lmul,w
  3260  052E  1683               	bsf	3,5	;RP0=1, select bank1
  3261  052F  1303               	bcf	3,6	;RP1=0, select bank1
  3262  0530  00CA               	movwf	_GBS_Stepper_Exe$1423^(0+128)
  3263  0531                     i1l2044:
  3264                           
  3265                           ;../gbs8/driver/scr/gbs8_stepper.c: 235:                     stepperX->cntsLast = steppe
      +                          rX->cntsLast + 1*((stepperX->cntsLast)*(stepperX->cntsLast)*(stepperX->cntsLast))*sBuffe
      +                          rX->buffer[sBufferX->head].acc/((10000)*(10000)) + ((stepperX->cntsLast)*(stepperX->cnts
      +                          Last)*(stepperX->cntsLast))*((stepperX->cntsLast)*(stepperX->cntsLast))*((sBufferX->buff
      +                          er[sBufferX->head].acc/((10000)*(10000)))*(sBufferX->buffer[sBufferX->head].acc/((10000)
      +                          *(10000))));
  3266  0531  084D               	movf	(_GBS_Stepper_Exe$1423+3)^(0+128),w
  3267  0532  1283               	bcf	3,5	;RP0=0, select bank0
  3268  0533  1303               	bcf	3,6	;RP1=0, select bank0
  3269  0534  00B0               	movwf	___lmul@multiplier+3
  3270  0535  1683               	bsf	3,5	;RP0=1, select bank1
  3271  0536  1303               	bcf	3,6	;RP1=0, select bank1
  3272  0537  084C               	movf	(_GBS_Stepper_Exe$1423+2)^(0+128),w
  3273  0538  1283               	bcf	3,5	;RP0=0, select bank0
  3274  0539  1303               	bcf	3,6	;RP1=0, select bank0
  3275  053A  00AF               	movwf	___lmul@multiplier+2
  3276  053B  1683               	bsf	3,5	;RP0=1, select bank1
  3277  053C  1303               	bcf	3,6	;RP1=0, select bank1
  3278  053D  084B               	movf	(_GBS_Stepper_Exe$1423+1)^(0+128),w
  3279  053E  1283               	bcf	3,5	;RP0=0, select bank0
  3280  053F  1303               	bcf	3,6	;RP1=0, select bank0
  3281  0540  00AE               	movwf	___lmul@multiplier+1
  3282  0541  1683               	bsf	3,5	;RP0=1, select bank1
  3283  0542  1303               	bcf	3,6	;RP1=0, select bank1
  3284  0543  084A               	movf	_GBS_Stepper_Exe$1423^(0+128),w
  3285  0544  1283               	bcf	3,5	;RP0=0, select bank0
  3286  0545  1303               	bcf	3,6	;RP1=0, select bank0
  3287  0546  00AD               	movwf	___lmul@multiplier
  3288  0547  1683               	bsf	3,5	;RP0=1, select bank1
  3289  0548  1303               	bcf	3,6	;RP1=0, select bank1
  3290  0549  0862               	movf	GBS_Stepper_Exe@stepperX^(0+128),w
  3291  054A  3E07               	addlw	7
  3292  054B  0084               	movwf	4
  3293  054C  1783               	bsf	3,7	;select IRP bank2
  3294  054D  0800               	movf	0,w
  3295  054E  1283               	bcf	3,5	;RP0=0, select bank0
  3296  054F  1303               	bcf	3,6	;RP1=0, select bank0
  3297  0550  00B1               	movwf	___lmul@multiplicand
  3298  0551  0A84               	incf	4,f
  3299  0552  0800               	movf	0,w
  3300  0553  00B2               	movwf	___lmul@multiplicand+1
  3301  0554  0A84               	incf	4,f
  3302  0555  0800               	movf	0,w
  3303  0556  00B3               	movwf	___lmul@multiplicand+2
  3304  0557  0A84               	incf	4,f
  3305  0558  0800               	movf	0,w
  3306  0559  00B4               	movwf	___lmul@multiplicand+3
  3307  055A  120A  158A  216B  120A  118A  	fcall	___lmul
  3308  055F  1283               	bcf	3,5	;RP0=0, select bank0
  3309  0560  1303               	bcf	3,6	;RP1=0, select bank0
  3310  0561  0830               	movf	?___lmul+3,w
  3311  0562  1683               	bsf	3,5	;RP0=1, select bank1
  3312  0563  1303               	bcf	3,6	;RP1=0, select bank1
  3313  0564  00D1               	movwf	(_GBS_Stepper_Exe$1424+3)^(0+128)
  3314  0565  1283               	bcf	3,5	;RP0=0, select bank0
  3315  0566  1303               	bcf	3,6	;RP1=0, select bank0
  3316  0567  082F               	movf	?___lmul+2,w
  3317  0568  1683               	bsf	3,5	;RP0=1, select bank1
  3318  0569  1303               	bcf	3,6	;RP1=0, select bank1
  3319  056A  00D0               	movwf	(_GBS_Stepper_Exe$1424+2)^(0+128)
  3320  056B  1283               	bcf	3,5	;RP0=0, select bank0
  3321  056C  1303               	bcf	3,6	;RP1=0, select bank0
  3322  056D  082E               	movf	?___lmul+1,w
  3323  056E  1683               	bsf	3,5	;RP0=1, select bank1
  3324  056F  1303               	bcf	3,6	;RP1=0, select bank1
  3325  0570  00CF               	movwf	(_GBS_Stepper_Exe$1424+1)^(0+128)
  3326  0571  1283               	bcf	3,5	;RP0=0, select bank0
  3327  0572  1303               	bcf	3,6	;RP1=0, select bank0
  3328  0573  082D               	movf	?___lmul,w
  3329  0574  1683               	bsf	3,5	;RP0=1, select bank1
  3330  0575  1303               	bcf	3,6	;RP1=0, select bank1
  3331  0576  00CE               	movwf	_GBS_Stepper_Exe$1424^(0+128)
  3332  0577                     i1l2046:
  3333                           
  3334                           ;../gbs8/driver/scr/gbs8_stepper.c: 235:                     stepperX->cntsLast = steppe
      +                          rX->cntsLast + 1*((stepperX->cntsLast)*(stepperX->cntsLast)*(stepperX->cntsLast))*sBuffe
      +                          rX->buffer[sBufferX->head].acc/((10000)*(10000)) + ((stepperX->cntsLast)*(stepperX->cnts
      +                          Last)*(stepperX->cntsLast))*((stepperX->cntsLast)*(stepperX->cntsLast))*((sBufferX->buff
      +                          er[sBufferX->head].acc/((10000)*(10000)))*(sBufferX->buffer[sBufferX->head].acc/((10000)
      +                          *(10000))));
  3335  0577  0851               	movf	(_GBS_Stepper_Exe$1424+3)^(0+128),w
  3336  0578  1283               	bcf	3,5	;RP0=0, select bank0
  3337  0579  1303               	bcf	3,6	;RP1=0, select bank0
  3338  057A  00B0               	movwf	___lmul@multiplier+3
  3339  057B  1683               	bsf	3,5	;RP0=1, select bank1
  3340  057C  1303               	bcf	3,6	;RP1=0, select bank1
  3341  057D  0850               	movf	(_GBS_Stepper_Exe$1424+2)^(0+128),w
  3342  057E  1283               	bcf	3,5	;RP0=0, select bank0
  3343  057F  1303               	bcf	3,6	;RP1=0, select bank0
  3344  0580  00AF               	movwf	___lmul@multiplier+2
  3345  0581  1683               	bsf	3,5	;RP0=1, select bank1
  3346  0582  1303               	bcf	3,6	;RP1=0, select bank1
  3347  0583  084F               	movf	(_GBS_Stepper_Exe$1424+1)^(0+128),w
  3348  0584  1283               	bcf	3,5	;RP0=0, select bank0
  3349  0585  1303               	bcf	3,6	;RP1=0, select bank0
  3350  0586  00AE               	movwf	___lmul@multiplier+1
  3351  0587  1683               	bsf	3,5	;RP0=1, select bank1
  3352  0588  1303               	bcf	3,6	;RP1=0, select bank1
  3353  0589  084E               	movf	_GBS_Stepper_Exe$1424^(0+128),w
  3354  058A  1283               	bcf	3,5	;RP0=0, select bank0
  3355  058B  1303               	bcf	3,6	;RP1=0, select bank0
  3356  058C  00AD               	movwf	___lmul@multiplier
  3357  058D  1683               	bsf	3,5	;RP0=1, select bank1
  3358  058E  1303               	bcf	3,6	;RP1=0, select bank1
  3359  058F  0862               	movf	GBS_Stepper_Exe@stepperX^(0+128),w
  3360  0590  3E07               	addlw	7
  3361  0591  0084               	movwf	4
  3362  0592  1783               	bsf	3,7	;select IRP bank2
  3363  0593  0800               	movf	0,w
  3364  0594  1283               	bcf	3,5	;RP0=0, select bank0
  3365  0595  1303               	bcf	3,6	;RP1=0, select bank0
  3366  0596  00B1               	movwf	___lmul@multiplicand
  3367  0597  0A84               	incf	4,f
  3368  0598  0800               	movf	0,w
  3369  0599  00B2               	movwf	___lmul@multiplicand+1
  3370  059A  0A84               	incf	4,f
  3371  059B  0800               	movf	0,w
  3372  059C  00B3               	movwf	___lmul@multiplicand+2
  3373  059D  0A84               	incf	4,f
  3374  059E  0800               	movf	0,w
  3375  059F  00B4               	movwf	___lmul@multiplicand+3
  3376  05A0  120A  158A  216B  120A  118A  	fcall	___lmul
  3377  05A5  1283               	bcf	3,5	;RP0=0, select bank0
  3378  05A6  1303               	bcf	3,6	;RP1=0, select bank0
  3379  05A7  0830               	movf	?___lmul+3,w
  3380  05A8  1683               	bsf	3,5	;RP0=1, select bank1
  3381  05A9  1303               	bcf	3,6	;RP1=0, select bank1
  3382  05AA  00D5               	movwf	(_GBS_Stepper_Exe$1425+3)^(0+128)
  3383  05AB  1283               	bcf	3,5	;RP0=0, select bank0
  3384  05AC  1303               	bcf	3,6	;RP1=0, select bank0
  3385  05AD  082F               	movf	?___lmul+2,w
  3386  05AE  1683               	bsf	3,5	;RP0=1, select bank1
  3387  05AF  1303               	bcf	3,6	;RP1=0, select bank1
  3388  05B0  00D4               	movwf	(_GBS_Stepper_Exe$1425+2)^(0+128)
  3389  05B1  1283               	bcf	3,5	;RP0=0, select bank0
  3390  05B2  1303               	bcf	3,6	;RP1=0, select bank0
  3391  05B3  082E               	movf	?___lmul+1,w
  3392  05B4  1683               	bsf	3,5	;RP0=1, select bank1
  3393  05B5  1303               	bcf	3,6	;RP1=0, select bank1
  3394  05B6  00D3               	movwf	(_GBS_Stepper_Exe$1425+1)^(0+128)
  3395  05B7  1283               	bcf	3,5	;RP0=0, select bank0
  3396  05B8  1303               	bcf	3,6	;RP1=0, select bank0
  3397  05B9  082D               	movf	?___lmul,w
  3398  05BA  1683               	bsf	3,5	;RP0=1, select bank1
  3399  05BB  1303               	bcf	3,6	;RP1=0, select bank1
  3400  05BC  00D2               	movwf	_GBS_Stepper_Exe$1425^(0+128)
  3401  05BD                     i1l2048:
  3402                           
  3403                           ;../gbs8/driver/scr/gbs8_stepper.c: 235:                     stepperX->cntsLast = steppe
      +                          rX->cntsLast + 1*((stepperX->cntsLast)*(stepperX->cntsLast)*(stepperX->cntsLast))*sBuffe
      +                          rX->buffer[sBufferX->head].acc/((10000)*(10000)) + ((stepperX->cntsLast)*(stepperX->cnts
      +                          Last)*(stepperX->cntsLast))*((stepperX->cntsLast)*(stepperX->cntsLast))*((sBufferX->buff
      +                          er[sBufferX->head].acc/((10000)*(10000)))*(sBufferX->buffer[sBufferX->head].acc/((10000)
      +                          *(10000))));
  3404  05BD  0855               	movf	(_GBS_Stepper_Exe$1425+3)^(0+128),w
  3405  05BE  1283               	bcf	3,5	;RP0=0, select bank0
  3406  05BF  1303               	bcf	3,6	;RP1=0, select bank0
  3407  05C0  00B0               	movwf	___lmul@multiplier+3
  3408  05C1  1683               	bsf	3,5	;RP0=1, select bank1
  3409  05C2  1303               	bcf	3,6	;RP1=0, select bank1
  3410  05C3  0854               	movf	(_GBS_Stepper_Exe$1425+2)^(0+128),w
  3411  05C4  1283               	bcf	3,5	;RP0=0, select bank0
  3412  05C5  1303               	bcf	3,6	;RP1=0, select bank0
  3413  05C6  00AF               	movwf	___lmul@multiplier+2
  3414  05C7  1683               	bsf	3,5	;RP0=1, select bank1
  3415  05C8  1303               	bcf	3,6	;RP1=0, select bank1
  3416  05C9  0853               	movf	(_GBS_Stepper_Exe$1425+1)^(0+128),w
  3417  05CA  1283               	bcf	3,5	;RP0=0, select bank0
  3418  05CB  1303               	bcf	3,6	;RP1=0, select bank0
  3419  05CC  00AE               	movwf	___lmul@multiplier+1
  3420  05CD  1683               	bsf	3,5	;RP0=1, select bank1
  3421  05CE  1303               	bcf	3,6	;RP1=0, select bank1
  3422  05CF  0852               	movf	_GBS_Stepper_Exe$1425^(0+128),w
  3423  05D0  1283               	bcf	3,5	;RP0=0, select bank0
  3424  05D1  1303               	bcf	3,6	;RP1=0, select bank0
  3425  05D2  00AD               	movwf	___lmul@multiplier
  3426  05D3  1683               	bsf	3,5	;RP0=1, select bank1
  3427  05D4  1303               	bcf	3,6	;RP1=0, select bank1
  3428  05D5  0862               	movf	GBS_Stepper_Exe@stepperX^(0+128),w
  3429  05D6  3E07               	addlw	7
  3430  05D7  0084               	movwf	4
  3431  05D8  1783               	bsf	3,7	;select IRP bank2
  3432  05D9  0800               	movf	0,w
  3433  05DA  1283               	bcf	3,5	;RP0=0, select bank0
  3434  05DB  1303               	bcf	3,6	;RP1=0, select bank0
  3435  05DC  00B1               	movwf	___lmul@multiplicand
  3436  05DD  0A84               	incf	4,f
  3437  05DE  0800               	movf	0,w
  3438  05DF  00B2               	movwf	___lmul@multiplicand+1
  3439  05E0  0A84               	incf	4,f
  3440  05E1  0800               	movf	0,w
  3441  05E2  00B3               	movwf	___lmul@multiplicand+2
  3442  05E3  0A84               	incf	4,f
  3443  05E4  0800               	movf	0,w
  3444  05E5  00B4               	movwf	___lmul@multiplicand+3
  3445  05E6  120A  158A  216B  120A  118A  	fcall	___lmul
  3446  05EB  1283               	bcf	3,5	;RP0=0, select bank0
  3447  05EC  1303               	bcf	3,6	;RP1=0, select bank0
  3448  05ED  0830               	movf	?___lmul+3,w
  3449  05EE  1683               	bsf	3,5	;RP0=1, select bank1
  3450  05EF  1303               	bcf	3,6	;RP1=0, select bank1
  3451  05F0  00D9               	movwf	(_GBS_Stepper_Exe$1426+3)^(0+128)
  3452  05F1  1283               	bcf	3,5	;RP0=0, select bank0
  3453  05F2  1303               	bcf	3,6	;RP1=0, select bank0
  3454  05F3  082F               	movf	?___lmul+2,w
  3455  05F4  1683               	bsf	3,5	;RP0=1, select bank1
  3456  05F5  1303               	bcf	3,6	;RP1=0, select bank1
  3457  05F6  00D8               	movwf	(_GBS_Stepper_Exe$1426+2)^(0+128)
  3458  05F7  1283               	bcf	3,5	;RP0=0, select bank0
  3459  05F8  1303               	bcf	3,6	;RP1=0, select bank0
  3460  05F9  082E               	movf	?___lmul+1,w
  3461  05FA  1683               	bsf	3,5	;RP0=1, select bank1
  3462  05FB  1303               	bcf	3,6	;RP1=0, select bank1
  3463  05FC  00D7               	movwf	(_GBS_Stepper_Exe$1426+1)^(0+128)
  3464  05FD  1283               	bcf	3,5	;RP0=0, select bank0
  3465  05FE  1303               	bcf	3,6	;RP1=0, select bank0
  3466  05FF  082D               	movf	?___lmul,w
  3467  0600  1683               	bsf	3,5	;RP0=1, select bank1
  3468  0601  1303               	bcf	3,6	;RP1=0, select bank1
  3469  0602  00D6               	movwf	_GBS_Stepper_Exe$1426^(0+128)
  3470  0603                     i1l2050:
  3471                           
  3472                           ;../gbs8/driver/scr/gbs8_stepper.c: 235:                     stepperX->cntsLast = steppe
      +                          rX->cntsLast + 1*((stepperX->cntsLast)*(stepperX->cntsLast)*(stepperX->cntsLast))*sBuffe
      +                          rX->buffer[sBufferX->head].acc/((10000)*(10000)) + ((stepperX->cntsLast)*(stepperX->cnts
      +                          Last)*(stepperX->cntsLast))*((stepperX->cntsLast)*(stepperX->cntsLast))*((sBufferX->buff
      +                          er[sBufferX->head].acc/((10000)*(10000)))*(sBufferX->buffer[sBufferX->head].acc/((10000)
      +                          *(10000))));
  3473  0603  0862               	movf	GBS_Stepper_Exe@stepperX^(0+128),w
  3474  0604  3E07               	addlw	7
  3475  0605  0084               	movwf	4
  3476  0606  1783               	bsf	3,7	;select IRP bank2
  3477  0607  0800               	movf	0,w
  3478  0608  1283               	bcf	3,5	;RP0=0, select bank0
  3479  0609  1303               	bcf	3,6	;RP1=0, select bank0
  3480  060A  00AD               	movwf	___lmul@multiplier
  3481  060B  0A84               	incf	4,f
  3482  060C  0800               	movf	0,w
  3483  060D  00AE               	movwf	___lmul@multiplier+1
  3484  060E  0A84               	incf	4,f
  3485  060F  0800               	movf	0,w
  3486  0610  00AF               	movwf	___lmul@multiplier+2
  3487  0611  0A84               	incf	4,f
  3488  0612  0800               	movf	0,w
  3489  0613  00B0               	movwf	___lmul@multiplier+3
  3490  0614  1683               	bsf	3,5	;RP0=1, select bank1
  3491  0615  1303               	bcf	3,6	;RP1=0, select bank1
  3492  0616  0862               	movf	GBS_Stepper_Exe@stepperX^(0+128),w
  3493  0617  3E07               	addlw	7
  3494  0618  0084               	movwf	4
  3495  0619  0800               	movf	0,w
  3496  061A  1283               	bcf	3,5	;RP0=0, select bank0
  3497  061B  1303               	bcf	3,6	;RP1=0, select bank0
  3498  061C  00B1               	movwf	___lmul@multiplicand
  3499  061D  0A84               	incf	4,f
  3500  061E  0800               	movf	0,w
  3501  061F  00B2               	movwf	___lmul@multiplicand+1
  3502  0620  0A84               	incf	4,f
  3503  0621  0800               	movf	0,w
  3504  0622  00B3               	movwf	___lmul@multiplicand+2
  3505  0623  0A84               	incf	4,f
  3506  0624  0800               	movf	0,w
  3507  0625  00B4               	movwf	___lmul@multiplicand+3
  3508  0626  120A  158A  216B  120A  118A  	fcall	___lmul
  3509  062B  1283               	bcf	3,5	;RP0=0, select bank0
  3510  062C  1303               	bcf	3,6	;RP1=0, select bank0
  3511  062D  0830               	movf	?___lmul+3,w
  3512  062E  1683               	bsf	3,5	;RP0=1, select bank1
  3513  062F  1303               	bcf	3,6	;RP1=0, select bank1
  3514  0630  00DD               	movwf	(_GBS_Stepper_Exe$1427+3)^(0+128)
  3515  0631  1283               	bcf	3,5	;RP0=0, select bank0
  3516  0632  1303               	bcf	3,6	;RP1=0, select bank0
  3517  0633  082F               	movf	?___lmul+2,w
  3518  0634  1683               	bsf	3,5	;RP0=1, select bank1
  3519  0635  1303               	bcf	3,6	;RP1=0, select bank1
  3520  0636  00DC               	movwf	(_GBS_Stepper_Exe$1427+2)^(0+128)
  3521  0637  1283               	bcf	3,5	;RP0=0, select bank0
  3522  0638  1303               	bcf	3,6	;RP1=0, select bank0
  3523  0639  082E               	movf	?___lmul+1,w
  3524  063A  1683               	bsf	3,5	;RP0=1, select bank1
  3525  063B  1303               	bcf	3,6	;RP1=0, select bank1
  3526  063C  00DB               	movwf	(_GBS_Stepper_Exe$1427+1)^(0+128)
  3527  063D  1283               	bcf	3,5	;RP0=0, select bank0
  3528  063E  1303               	bcf	3,6	;RP1=0, select bank0
  3529  063F  082D               	movf	?___lmul,w
  3530  0640  1683               	bsf	3,5	;RP0=1, select bank1
  3531  0641  1303               	bcf	3,6	;RP1=0, select bank1
  3532  0642  00DA               	movwf	_GBS_Stepper_Exe$1427^(0+128)
  3533  0643                     i1l2052:
  3534                           
  3535                           ;../gbs8/driver/scr/gbs8_stepper.c: 235:                     stepperX->cntsLast = steppe
      +                          rX->cntsLast + 1*((stepperX->cntsLast)*(stepperX->cntsLast)*(stepperX->cntsLast))*sBuffe
      +                          rX->buffer[sBufferX->head].acc/((10000)*(10000)) + ((stepperX->cntsLast)*(stepperX->cnts
      +                          Last)*(stepperX->cntsLast))*((stepperX->cntsLast)*(stepperX->cntsLast))*((sBufferX->buff
      +                          er[sBufferX->head].acc/((10000)*(10000)))*(sBufferX->buffer[sBufferX->head].acc/((10000)
      +                          *(10000))));
  3536  0643  085D               	movf	(_GBS_Stepper_Exe$1427+3)^(0+128),w
  3537  0644  1283               	bcf	3,5	;RP0=0, select bank0
  3538  0645  1303               	bcf	3,6	;RP1=0, select bank0
  3539  0646  00B0               	movwf	___lmul@multiplier+3
  3540  0647  1683               	bsf	3,5	;RP0=1, select bank1
  3541  0648  1303               	bcf	3,6	;RP1=0, select bank1
  3542  0649  085C               	movf	(_GBS_Stepper_Exe$1427+2)^(0+128),w
  3543  064A  1283               	bcf	3,5	;RP0=0, select bank0
  3544  064B  1303               	bcf	3,6	;RP1=0, select bank0
  3545  064C  00AF               	movwf	___lmul@multiplier+2
  3546  064D  1683               	bsf	3,5	;RP0=1, select bank1
  3547  064E  1303               	bcf	3,6	;RP1=0, select bank1
  3548  064F  085B               	movf	(_GBS_Stepper_Exe$1427+1)^(0+128),w
  3549  0650  1283               	bcf	3,5	;RP0=0, select bank0
  3550  0651  1303               	bcf	3,6	;RP1=0, select bank0
  3551  0652  00AE               	movwf	___lmul@multiplier+1
  3552  0653  1683               	bsf	3,5	;RP0=1, select bank1
  3553  0654  1303               	bcf	3,6	;RP1=0, select bank1
  3554  0655  085A               	movf	_GBS_Stepper_Exe$1427^(0+128),w
  3555  0656  1283               	bcf	3,5	;RP0=0, select bank0
  3556  0657  1303               	bcf	3,6	;RP1=0, select bank0
  3557  0658  00AD               	movwf	___lmul@multiplier
  3558  0659  1683               	bsf	3,5	;RP0=1, select bank1
  3559  065A  1303               	bcf	3,6	;RP1=0, select bank1
  3560  065B  0862               	movf	GBS_Stepper_Exe@stepperX^(0+128),w
  3561  065C  3E07               	addlw	7
  3562  065D  0084               	movwf	4
  3563  065E  1783               	bsf	3,7	;select IRP bank2
  3564  065F  0800               	movf	0,w
  3565  0660  1283               	bcf	3,5	;RP0=0, select bank0
  3566  0661  1303               	bcf	3,6	;RP1=0, select bank0
  3567  0662  00B1               	movwf	___lmul@multiplicand
  3568  0663  0A84               	incf	4,f
  3569  0664  0800               	movf	0,w
  3570  0665  00B2               	movwf	___lmul@multiplicand+1
  3571  0666  0A84               	incf	4,f
  3572  0667  0800               	movf	0,w
  3573  0668  00B3               	movwf	___lmul@multiplicand+2
  3574  0669  0A84               	incf	4,f
  3575  066A  0800               	movf	0,w
  3576  066B  00B4               	movwf	___lmul@multiplicand+3
  3577  066C  120A  158A  216B  120A  118A  	fcall	___lmul
  3578  0671  1283               	bcf	3,5	;RP0=0, select bank0
  3579  0672  1303               	bcf	3,6	;RP1=0, select bank0
  3580  0673  0830               	movf	?___lmul+3,w
  3581  0674  1683               	bsf	3,5	;RP0=1, select bank1
  3582  0675  1303               	bcf	3,6	;RP1=0, select bank1
  3583  0676  00E1               	movwf	(_GBS_Stepper_Exe$1428+3)^(0+128)
  3584  0677  1283               	bcf	3,5	;RP0=0, select bank0
  3585  0678  1303               	bcf	3,6	;RP1=0, select bank0
  3586  0679  082F               	movf	?___lmul+2,w
  3587  067A  1683               	bsf	3,5	;RP0=1, select bank1
  3588  067B  1303               	bcf	3,6	;RP1=0, select bank1
  3589  067C  00E0               	movwf	(_GBS_Stepper_Exe$1428+2)^(0+128)
  3590  067D  1283               	bcf	3,5	;RP0=0, select bank0
  3591  067E  1303               	bcf	3,6	;RP1=0, select bank0
  3592  067F  082E               	movf	?___lmul+1,w
  3593  0680  1683               	bsf	3,5	;RP0=1, select bank1
  3594  0681  1303               	bcf	3,6	;RP1=0, select bank1
  3595  0682  00DF               	movwf	(_GBS_Stepper_Exe$1428+1)^(0+128)
  3596  0683  1283               	bcf	3,5	;RP0=0, select bank0
  3597  0684  1303               	bcf	3,6	;RP1=0, select bank0
  3598  0685  082D               	movf	?___lmul,w
  3599  0686  1683               	bsf	3,5	;RP0=1, select bank1
  3600  0687  1303               	bcf	3,6	;RP1=0, select bank1
  3601  0688  00DE               	movwf	_GBS_Stepper_Exe$1428^(0+128)
  3602  0689                     i1l2054:
  3603                           
  3604                           ;../gbs8/driver/scr/gbs8_stepper.c: 235:                     stepperX->cntsLast = steppe
      +                          rX->cntsLast + 1*((stepperX->cntsLast)*(stepperX->cntsLast)*(stepperX->cntsLast))*sBuffe
      +                          rX->buffer[sBufferX->head].acc/((10000)*(10000)) + ((stepperX->cntsLast)*(stepperX->cnts
      +                          Last)*(stepperX->cntsLast))*((stepperX->cntsLast)*(stepperX->cntsLast))*((sBufferX->buff
      +                          er[sBufferX->head].acc/((10000)*(10000)))*(sBufferX->buffer[sBufferX->head].acc/((10000)
      +                          *(10000))));
  3605  0689  0862               	movf	GBS_Stepper_Exe@stepperX^(0+128),w
  3606  068A  3E07               	addlw	7
  3607  068B  0084               	movwf	4
  3608  068C  1783               	bsf	3,7	;select IRP bank2
  3609  068D  0800               	movf	0,w
  3610  068E  00B7               	movwf	??_GBS_Stepper_Exe^(0+128)
  3611  068F  0A84               	incf	4,f
  3612  0690  0800               	movf	0,w
  3613  0691  00B8               	movwf	(??_GBS_Stepper_Exe^(0+128)+1)
  3614  0692  0A84               	incf	4,f
  3615  0693  0800               	movf	0,w
  3616  0694  00B9               	movwf	(??_GBS_Stepper_Exe^(0+128)+2)
  3617  0695  0A84               	incf	4,f
  3618  0696  0800               	movf	0,w
  3619  0697  00BA               	movwf	(??_GBS_Stepper_Exe^(0+128)+3)
  3620  0698  0859               	movf	(_GBS_Stepper_Exe$1426+3)^(0+128),w
  3621  0699  1283               	bcf	3,5	;RP0=0, select bank0
  3622  069A  1303               	bcf	3,6	;RP1=0, select bank0
  3623  069B  00B0               	movwf	___lmul@multiplier+3
  3624  069C  1683               	bsf	3,5	;RP0=1, select bank1
  3625  069D  1303               	bcf	3,6	;RP1=0, select bank1
  3626  069E  0858               	movf	(_GBS_Stepper_Exe$1426+2)^(0+128),w
  3627  069F  1283               	bcf	3,5	;RP0=0, select bank0
  3628  06A0  1303               	bcf	3,6	;RP1=0, select bank0
  3629  06A1  00AF               	movwf	___lmul@multiplier+2
  3630  06A2  1683               	bsf	3,5	;RP0=1, select bank1
  3631  06A3  1303               	bcf	3,6	;RP1=0, select bank1
  3632  06A4  0857               	movf	(_GBS_Stepper_Exe$1426+1)^(0+128),w
  3633  06A5  1283               	bcf	3,5	;RP0=0, select bank0
  3634  06A6  1303               	bcf	3,6	;RP1=0, select bank0
  3635  06A7  00AE               	movwf	___lmul@multiplier+1
  3636  06A8  1683               	bsf	3,5	;RP0=1, select bank1
  3637  06A9  1303               	bcf	3,6	;RP1=0, select bank1
  3638  06AA  0856               	movf	_GBS_Stepper_Exe$1426^(0+128),w
  3639  06AB  1283               	bcf	3,5	;RP0=0, select bank0
  3640  06AC  1303               	bcf	3,6	;RP1=0, select bank0
  3641  06AD  00AD               	movwf	___lmul@multiplier
  3642  06AE  1683               	bsf	3,5	;RP0=1, select bank1
  3643  06AF  1303               	bcf	3,6	;RP1=0, select bank1
  3644  06B0  0862               	movf	GBS_Stepper_Exe@stepperX^(0+128),w
  3645  06B1  3E07               	addlw	7
  3646  06B2  0084               	movwf	4
  3647  06B3  0800               	movf	0,w
  3648  06B4  1283               	bcf	3,5	;RP0=0, select bank0
  3649  06B5  1303               	bcf	3,6	;RP1=0, select bank0
  3650  06B6  00B1               	movwf	___lmul@multiplicand
  3651  06B7  0A84               	incf	4,f
  3652  06B8  0800               	movf	0,w
  3653  06B9  00B2               	movwf	___lmul@multiplicand+1
  3654  06BA  0A84               	incf	4,f
  3655  06BB  0800               	movf	0,w
  3656  06BC  00B3               	movwf	___lmul@multiplicand+2
  3657  06BD  0A84               	incf	4,f
  3658  06BE  0800               	movf	0,w
  3659  06BF  00B4               	movwf	___lmul@multiplicand+3
  3660  06C0  120A  158A  216B  120A  118A  	fcall	___lmul
  3661  06C5  1283               	bcf	3,5	;RP0=0, select bank0
  3662  06C6  1303               	bcf	3,6	;RP1=0, select bank0
  3663  06C7  082D               	movf	?___lmul,w
  3664  06C8  1683               	bsf	3,5	;RP0=1, select bank1
  3665  06C9  1303               	bcf	3,6	;RP1=0, select bank1
  3666  06CA  00BB               	movwf	(??_GBS_Stepper_Exe+4)^(0+128)
  3667  06CB  1283               	bcf	3,5	;RP0=0, select bank0
  3668  06CC  1303               	bcf	3,6	;RP1=0, select bank0
  3669  06CD  082E               	movf	?___lmul+1,w
  3670  06CE  1683               	bsf	3,5	;RP0=1, select bank1
  3671  06CF  1303               	bcf	3,6	;RP1=0, select bank1
  3672  06D0  00BC               	movwf	((??_GBS_Stepper_Exe+4)^(0+128)+1)
  3673  06D1  1283               	bcf	3,5	;RP0=0, select bank0
  3674  06D2  1303               	bcf	3,6	;RP1=0, select bank0
  3675  06D3  082F               	movf	?___lmul+2,w
  3676  06D4  1683               	bsf	3,5	;RP0=1, select bank1
  3677  06D5  1303               	bcf	3,6	;RP1=0, select bank1
  3678  06D6  00BD               	movwf	((??_GBS_Stepper_Exe+4)^(0+128)+2)
  3679  06D7  1283               	bcf	3,5	;RP0=0, select bank0
  3680  06D8  1303               	bcf	3,6	;RP1=0, select bank0
  3681  06D9  0830               	movf	?___lmul+3,w
  3682  06DA  1683               	bsf	3,5	;RP0=1, select bank1
  3683  06DB  1303               	bcf	3,6	;RP1=0, select bank1
  3684  06DC  00BE               	movwf	((??_GBS_Stepper_Exe+4)^(0+128)+3)
  3685  06DD  30FF               	movlw	255
  3686  06DE  1283               	bcf	3,5	;RP0=0, select bank0
  3687  06DF  1303               	bcf	3,6	;RP1=0, select bank0
  3688  06E0  00A3               	movwf	___lldiv@divisor+3
  3689  06E1  30FF               	movlw	255
  3690  06E2  00A2               	movwf	___lldiv@divisor+2
  3691  06E3  30E1               	movlw	225
  3692  06E4  00A1               	movwf	___lldiv@divisor+1
  3693  06E5  3000               	movlw	0
  3694  06E6  00A0               	movwf	___lldiv@divisor
  3695  06E7  1683               	bsf	3,5	;RP0=1, select bank1
  3696  06E8  1303               	bcf	3,6	;RP1=0, select bank1
  3697  06E9  0861               	movf	(_GBS_Stepper_Exe$1428+3)^(0+128),w
  3698  06EA  1283               	bcf	3,5	;RP0=0, select bank0
  3699  06EB  1303               	bcf	3,6	;RP1=0, select bank0
  3700  06EC  00B0               	movwf	___lmul@multiplier+3
  3701  06ED  1683               	bsf	3,5	;RP0=1, select bank1
  3702  06EE  1303               	bcf	3,6	;RP1=0, select bank1
  3703  06EF  0860               	movf	(_GBS_Stepper_Exe$1428+2)^(0+128),w
  3704  06F0  1283               	bcf	3,5	;RP0=0, select bank0
  3705  06F1  1303               	bcf	3,6	;RP1=0, select bank0
  3706  06F2  00AF               	movwf	___lmul@multiplier+2
  3707  06F3  1683               	bsf	3,5	;RP0=1, select bank1
  3708  06F4  1303               	bcf	3,6	;RP1=0, select bank1
  3709  06F5  085F               	movf	(_GBS_Stepper_Exe$1428+1)^(0+128),w
  3710  06F6  1283               	bcf	3,5	;RP0=0, select bank0
  3711  06F7  1303               	bcf	3,6	;RP1=0, select bank0
  3712  06F8  00AE               	movwf	___lmul@multiplier+1
  3713  06F9  1683               	bsf	3,5	;RP0=1, select bank1
  3714  06FA  1303               	bcf	3,6	;RP1=0, select bank1
  3715  06FB  085E               	movf	_GBS_Stepper_Exe$1428^(0+128),w
  3716  06FC  1283               	bcf	3,5	;RP0=0, select bank0
  3717  06FD  1303               	bcf	3,6	;RP1=0, select bank0
  3718  06FE  00AD               	movwf	___lmul@multiplier
  3719  06FF  301A               	movlw	26
  3720  0700  00FF               	movwf	btemp+1
  3721  0701  087F               	movf	btemp+1,w
  3722  0702  00F7               	movwf	i1___bmul@multiplicand
  3723  0703  1683               	bsf	3,5	;RP0=1, select bank1
  3724  0704  1303               	bcf	3,6	;RP1=0, select bank1
  3725  0705  0836               	movf	GBS_Stepper_Exe@sBufferX^(0+128),w
  3726  0706  3E4E               	addlw	78
  3727  0707  0084               	movwf	4
  3728  0708  1783               	bsf	3,7	;select IRP bank2
  3729  0709  0800               	movf	0,w
  3730  070A  120A  158A  2065  120A  118A  	fcall	i1___bmul
  3731  070F  1683               	bsf	3,5	;RP0=1, select bank1
  3732  0710  1303               	bcf	3,6	;RP1=0, select bank1
  3733  0711  0736               	addwf	GBS_Stepper_Exe@sBufferX^(0+128),w
  3734  0712  00BF               	movwf	(??_GBS_Stepper_Exe+8)^(0+128)
  3735  0713  083F               	movf	(??_GBS_Stepper_Exe+8)^(0+128),w
  3736  0714  3E0D               	addlw	13
  3737  0715  0084               	movwf	4
  3738  0716  1783               	bsf	3,7	;select IRP bank2
  3739  0717  0800               	movf	0,w
  3740  0718  1283               	bcf	3,5	;RP0=0, select bank0
  3741  0719  1303               	bcf	3,6	;RP1=0, select bank0
  3742  071A  00B1               	movwf	___lmul@multiplicand
  3743  071B  0A84               	incf	4,f
  3744  071C  0800               	movf	0,w
  3745  071D  00B2               	movwf	___lmul@multiplicand+1
  3746  071E  0A84               	incf	4,f
  3747  071F  0800               	movf	0,w
  3748  0720  00B3               	movwf	___lmul@multiplicand+2
  3749  0721  0A84               	incf	4,f
  3750  0722  0800               	movf	0,w
  3751  0723  00B4               	movwf	___lmul@multiplicand+3
  3752  0724  120A  158A  216B  120A  118A  	fcall	___lmul
  3753  0729  1283               	bcf	3,5	;RP0=0, select bank0
  3754  072A  1303               	bcf	3,6	;RP1=0, select bank0
  3755  072B  0830               	movf	?___lmul+3,w
  3756  072C  00A7               	movwf	___lldiv@dividend+3
  3757  072D  082F               	movf	?___lmul+2,w
  3758  072E  00A6               	movwf	___lldiv@dividend+2
  3759  072F  082E               	movf	?___lmul+1,w
  3760  0730  00A5               	movwf	___lldiv@dividend+1
  3761  0731  082D               	movf	?___lmul,w
  3762  0732  00A4               	movwf	___lldiv@dividend
  3763  0733  120A  158A  2267  120A  118A  	fcall	___lldiv
  3764  0738  1283               	bcf	3,5	;RP0=0, select bank0
  3765  0739  1303               	bcf	3,6	;RP1=0, select bank0
  3766  073A  0820               	movf	?___lldiv,w
  3767  073B  1683               	bsf	3,5	;RP0=1, select bank1
  3768  073C  1303               	bcf	3,6	;RP1=0, select bank1
  3769  073D  07BB               	addwf	(??_GBS_Stepper_Exe+4)^(0+128),f
  3770  073E  1283               	bcf	3,5	;RP0=0, select bank0
  3771  073F  1303               	bcf	3,6	;RP1=0, select bank0
  3772  0740  0821               	movf	?___lldiv+1,w
  3773  0741  1803               	skipnc
  3774  0742  0F21               	incfsz	?___lldiv+1,w
  3775  0743  2F45               	goto	u243_20
  3776  0744  2F48               	goto	u243_21
  3777  0745                     u243_20:
  3778  0745  1683               	bsf	3,5	;RP0=1, select bank1
  3779  0746  1303               	bcf	3,6	;RP1=0, select bank1
  3780  0747  07BC               	addwf	((??_GBS_Stepper_Exe+4)^(0+128)+1),f
  3781  0748                     u243_21:
  3782  0748  1283               	bcf	3,5	;RP0=0, select bank0
  3783  0749  1303               	bcf	3,6	;RP1=0, select bank0
  3784  074A  0822               	movf	?___lldiv+2,w
  3785  074B  1803               	skipnc
  3786  074C  0F22               	incfsz	?___lldiv+2,w
  3787  074D  2F4F               	goto	u243_22
  3788  074E  2F52               	goto	u243_23
  3789  074F                     u243_22:
  3790  074F  1683               	bsf	3,5	;RP0=1, select bank1
  3791  0750  1303               	bcf	3,6	;RP1=0, select bank1
  3792  0751  07BD               	addwf	((??_GBS_Stepper_Exe+4)^(0+128)+2),f
  3793  0752                     u243_23:
  3794  0752  1283               	bcf	3,5	;RP0=0, select bank0
  3795  0753  1303               	bcf	3,6	;RP1=0, select bank0
  3796  0754  0823               	movf	?___lldiv+3,w
  3797  0755  1803               	skipnc
  3798  0756  0A23               	incf	?___lldiv+3,w
  3799  0757  1683               	bsf	3,5	;RP0=1, select bank1
  3800  0758  1303               	bcf	3,6	;RP1=0, select bank1
  3801  0759  07BE               	addwf	((??_GBS_Stepper_Exe+4)^(0+128)+3),f
  3802  075A  083B               	movf	(??_GBS_Stepper_Exe+4)^(0+128),w
  3803  075B  07B7               	addwf	??_GBS_Stepper_Exe^(0+128),f
  3804  075C  083C               	movf	(??_GBS_Stepper_Exe+5)^(0+128),w
  3805  075D  1803               	skipnc
  3806  075E  0F3C               	incfsz	(??_GBS_Stepper_Exe+5)^(0+128),w
  3807  075F  2F61               	goto	u244_20
  3808  0760  2F62               	goto	u244_21
  3809  0761                     u244_20:
  3810  0761  07B8               	addwf	(??_GBS_Stepper_Exe^(0+128)+1),f
  3811  0762                     u244_21:
  3812  0762  083D               	movf	(??_GBS_Stepper_Exe+6)^(0+128),w
  3813  0763  1803               	skipnc
  3814  0764  0F3D               	incfsz	(??_GBS_Stepper_Exe+6)^(0+128),w
  3815  0765  2F67               	goto	u244_22
  3816  0766  2F68               	goto	u244_23
  3817  0767                     u244_22:
  3818  0767  07B9               	addwf	(??_GBS_Stepper_Exe^(0+128)+2),f
  3819  0768                     u244_23:
  3820  0768  083E               	movf	(??_GBS_Stepper_Exe+7)^(0+128),w
  3821  0769  1803               	skipnc
  3822  076A  0A3E               	incf	(??_GBS_Stepper_Exe+7)^(0+128),w
  3823  076B  07BA               	addwf	(??_GBS_Stepper_Exe^(0+128)+3),f
  3824  076C  0862               	movf	GBS_Stepper_Exe@stepperX^(0+128),w
  3825  076D  3E07               	addlw	7
  3826  076E  0084               	movwf	4
  3827  076F  0837               	movf	??_GBS_Stepper_Exe^(0+128),w
  3828  0770  1783               	bsf	3,7	;select IRP bank2
  3829  0771  0080               	movwf	0
  3830  0772  0A84               	incf	4,f
  3831  0773  0838               	movf	(??_GBS_Stepper_Exe+1)^(0+128),w
  3832  0774  0080               	movwf	0
  3833  0775  0A84               	incf	4,f
  3834  0776  0839               	movf	(??_GBS_Stepper_Exe+2)^(0+128),w
  3835  0777  0080               	movwf	0
  3836  0778  0A84               	incf	4,f
  3837  0779  083A               	movf	(??_GBS_Stepper_Exe+3)^(0+128),w
  3838  077A  0080               	movwf	0
  3839  077B                     i1l2056:
  3840                           
  3841                           ;../gbs8/driver/scr/gbs8_stepper.c: 237:                     sBufferX->buffer[sBufferX->
      +                          head].acc_until--;
  3842  077B  301A               	movlw	26
  3843  077C  00FF               	movwf	btemp+1
  3844  077D  087F               	movf	btemp+1,w
  3845  077E  00F7               	movwf	i1___bmul@multiplicand
  3846  077F  0836               	movf	GBS_Stepper_Exe@sBufferX^(0+128),w
  3847  0780  3E4E               	addlw	78
  3848  0781  0084               	movwf	4
  3849  0782  0800               	movf	0,w
  3850  0783  120A  158A  2065  120A  118A  	fcall	i1___bmul
  3851  0788  1683               	bsf	3,5	;RP0=1, select bank1
  3852  0789  1303               	bcf	3,6	;RP1=0, select bank1
  3853  078A  0736               	addwf	GBS_Stepper_Exe@sBufferX^(0+128),w
  3854  078B  00B7               	movwf	??_GBS_Stepper_Exe^(0+128)
  3855  078C  0A37               	incf	??_GBS_Stepper_Exe^(0+128),w
  3856  078D  0084               	movwf	4
  3857  078E  3001               	movlw	1
  3858  078F  1783               	bsf	3,7	;select IRP bank2
  3859  0790  0280               	subwf	0,f
  3860  0791  0A84               	incf	4,f
  3861  0792  3000               	movlw	0
  3862  0793  1C03               	skipc
  3863  0794  3001               	movlw	1
  3864  0795  0280               	subwf	0,f
  3865  0796  0A84               	incf	4,f
  3866  0797  3000               	movlw	0
  3867  0798  1C03               	skipc
  3868  0799  3001               	movlw	1
  3869  079A  0280               	subwf	0,f
  3870  079B  0A84               	incf	4,f
  3871  079C  3000               	movlw	0
  3872  079D  1C03               	skipc
  3873  079E  3001               	movlw	1
  3874  079F  0280               	subwf	0,f
  3875  07A0  3003               	movlw	3
  3876  07A1  0284               	subwf	4,f
  3877  07A2                     i1l2058:
  3878                           
  3879                           ;../gbs8/driver/scr/gbs8_stepper.c: 238:                     sBufferX->buffer[sBufferX->
      +                          head].dec_after--;
  3880  07A2  301A               	movlw	26
  3881  07A3  00FF               	movwf	btemp+1
  3882  07A4  087F               	movf	btemp+1,w
  3883  07A5  00F7               	movwf	i1___bmul@multiplicand
  3884  07A6  0836               	movf	GBS_Stepper_Exe@sBufferX^(0+128),w
  3885  07A7  3E4E               	addlw	78
  3886  07A8  0084               	movwf	4
  3887  07A9  0800               	movf	0,w
  3888  07AA  120A  158A  2065  120A  118A  	fcall	i1___bmul
  3889  07AF  1683               	bsf	3,5	;RP0=1, select bank1
  3890  07B0  1303               	bcf	3,6	;RP1=0, select bank1
  3891  07B1  0736               	addwf	GBS_Stepper_Exe@sBufferX^(0+128),w
  3892  07B2  00B7               	movwf	??_GBS_Stepper_Exe^(0+128)
  3893  07B3  0837               	movf	??_GBS_Stepper_Exe^(0+128),w
  3894  07B4  3E05               	addlw	5
  3895  07B5  0084               	movwf	4
  3896  07B6  3001               	movlw	1
  3897  07B7  1783               	bsf	3,7	;select IRP bank2
  3898  07B8  0280               	subwf	0,f
  3899  07B9  0A84               	incf	4,f
  3900  07BA  3000               	movlw	0
  3901  07BB  1C03               	skipc
  3902  07BC  3001               	movlw	1
  3903  07BD  0280               	subwf	0,f
  3904  07BE  0A84               	incf	4,f
  3905  07BF  3000               	movlw	0
  3906  07C0  1C03               	skipc
  3907  07C1  3001               	movlw	1
  3908  07C2  0280               	subwf	0,f
  3909  07C3  0A84               	incf	4,f
  3910  07C4  3000               	movlw	0
  3911  07C5  1C03               	skipc
  3912  07C6  3001               	movlw	1
  3913  07C7  0280               	subwf	0,f
  3914  07C8  3003               	movlw	3
  3915  07C9  0284               	subwf	4,f
  3916  07CA                     i1l184:	
  3917                           ;../gbs8/driver/scr/gbs8_stepper.c: 239:                 }
  3918                           
  3919                           
  3920                           ;../gbs8/driver/scr/gbs8_stepper.c: 250:                 stepperX->cnts = stepperX->cnts
      +                          Last;
  3921  07CA  0862               	movf	GBS_Stepper_Exe@stepperX^(0+128),w
  3922  07CB  3E07               	addlw	7
  3923  07CC  0084               	movwf	4
  3924  07CD  0800               	movf	0,w
  3925  07CE  00B7               	movwf	??_GBS_Stepper_Exe^(0+128)
  3926  07CF  0A84               	incf	4,f
  3927  07D0  0800               	movf	0,w
  3928  07D1  00B8               	movwf	(??_GBS_Stepper_Exe^(0+128)+1)
  3929  07D2  0A84               	incf	4,f
  3930  07D3  0800               	movf	0,w
  3931  07D4  00B9               	movwf	(??_GBS_Stepper_Exe^(0+128)+2)
  3932  07D5  0A84               	incf	4,f
  3933  07D6  0800               	movf	0,w
  3934  07D7  00BA               	movwf	(??_GBS_Stepper_Exe^(0+128)+3)
  3935  07D8  0862               	movf	GBS_Stepper_Exe@stepperX^(0+128),w
  3936  07D9  3E03               	addlw	3
  3937  07DA  0084               	movwf	4
  3938  07DB  0837               	movf	??_GBS_Stepper_Exe^(0+128),w
  3939  07DC  0080               	movwf	0
  3940  07DD  0A84               	incf	4,f
  3941  07DE  0838               	movf	(??_GBS_Stepper_Exe+1)^(0+128),w
  3942  07DF  0080               	movwf	0
  3943  07E0  0A84               	incf	4,f
  3944  07E1  0839               	movf	(??_GBS_Stepper_Exe+2)^(0+128),w
  3945  07E2  0080               	movwf	0
  3946  07E3  0A84               	incf	4,f
  3947  07E4  083A               	movf	(??_GBS_Stepper_Exe+3)^(0+128),w
  3948  07E5  0080               	movwf	0
  3949  07E6                     i1l187:
  3950  07E6  0008               	return
  3951  07E7                     __end_of_GBS_Stepper_Exe:
  3952                           
  3953                           	psect	text13
  3954  0865                     __ptext13:	
  3955 ;; *************** function i1___bmul *****************
  3956 ;; Defined at:
  3957 ;;		line 4 in file "C:\Program Files\Microchip\xc8\v2.20\pic\sources\c90\common\Umul8.c"
  3958 ;; Parameters:    Size  Location     Type
  3959 ;;  multiplier      1    wreg     unsigned char 
  3960 ;;  multiplicand    1    6[COMMON] unsigned char 
  3961 ;; Auto vars:     Size  Location     Type
  3962 ;;  multiplier      1    8[COMMON] unsigned char 
  3963 ;;  product         1    7[COMMON] unsigned char 
  3964 ;; Return value:  Size  Location     Type
  3965 ;;                  1    wreg      unsigned char 
  3966 ;; Registers used:
  3967 ;;		wreg, status,2, status,0, btemp+1
  3968 ;; Tracked objects:
  3969 ;;		On entry : 0/0
  3970 ;;		On exit  : 0/0
  3971 ;;		Unchanged: 0/0
  3972 ;; Data sizes:     COMMON   BANK0   BANK1   BANK3   BANK2
  3973 ;;      Params:         1       0       0       0       0
  3974 ;;      Locals:         2       0       0       0       0
  3975 ;;      Temps:          0       0       0       0       0
  3976 ;;      Totals:         3       0       0       0       0
  3977 ;;Total ram usage:        3 bytes
  3978 ;; Hardware stack levels used:    1
  3979 ;; This function calls:
  3980 ;;		Nothing
  3981 ;; This function is called by:
  3982 ;;		_GBS_Stepper_Exe
  3983 ;; This function uses a non-reentrant model
  3984 ;;
  3985                           
  3986                           
  3987                           ;psect for function i1___bmul
  3988  0865                     i1___bmul:
  3989                           
  3990                           ;incstack = 0
  3991                           ; Regs used in i1___bmul: [wreg+status,2+status,0+btemp+1]
  3992                           ;i1___bmul@multiplier stored from wreg
  3993  0865  00F9               	movwf	i1___bmul@multiplier
  3994  0866                     i1l1972:
  3995  0866  01F8               	clrf	i1___bmul@product
  3996  0867                     i1l1974:
  3997  0867  1C79               	btfss	i1___bmul@multiplier,0
  3998  0868  286A               	goto	u228_21
  3999  0869  286B               	goto	u228_20
  4000  086A                     u228_21:
  4001  086A  286F               	goto	i1l1978
  4002  086B                     u228_20:
  4003  086B                     i1l1976:
  4004  086B  0877               	movf	i1___bmul@multiplicand,w
  4005  086C  00FF               	movwf	btemp+1
  4006  086D  087F               	movf	btemp+1,w
  4007  086E  07F8               	addwf	i1___bmul@product,f
  4008  086F                     i1l1978:
  4009  086F  1003               	clrc
  4010  0870  0DF7               	rlf	i1___bmul@multiplicand,f
  4011  0871                     i1l1980:
  4012  0871  1003               	clrc
  4013  0872  0CF9               	rrf	i1___bmul@multiplier,f
  4014  0873                     i1l1982:
  4015  0873  0879               	movf	i1___bmul@multiplier,w
  4016  0874  1D03               	btfss	3,2
  4017  0875  2877               	goto	u229_21
  4018  0876  2878               	goto	u229_20
  4019  0877                     u229_21:
  4020  0877  2867               	goto	i1l1974
  4021  0878                     u229_20:
  4022  0878                     i1l1984:
  4023  0878  0878               	movf	i1___bmul@product,w
  4024  0879                     i1l308:
  4025  0879  0008               	return
  4026  087A                     __end_ofi1___bmul:
  4027                           
  4028                           	psect	text14
  4029  09B3                     __ptext14:	
  4030 ;; *************** function i1___awmod *****************
  4031 ;; Defined at:
  4032 ;;		line 5 in file "C:\Program Files\Microchip\xc8\v2.20\pic\sources\c90\common\awmod.c"
  4033 ;; Parameters:    Size  Location     Type
  4034 ;;  divisor         2    0[COMMON] int 
  4035 ;;  dividend        2    2[COMMON] int 
  4036 ;; Auto vars:     Size  Location     Type
  4037 ;;  sign            1    5[COMMON] unsigned char 
  4038 ;;  counter         1    4[COMMON] unsigned char 
  4039 ;; Return value:  Size  Location     Type
  4040 ;;                  2    0[COMMON] int 
  4041 ;; Registers used:
  4042 ;;		wreg, status,2, status,0, btemp+1
  4043 ;; Tracked objects:
  4044 ;;		On entry : 0/0
  4045 ;;		On exit  : 0/0
  4046 ;;		Unchanged: 0/0
  4047 ;; Data sizes:     COMMON   BANK0   BANK1   BANK3   BANK2
  4048 ;;      Params:         4       0       0       0       0
  4049 ;;      Locals:         2       0       0       0       0
  4050 ;;      Temps:          0       0       0       0       0
  4051 ;;      Totals:         6       0       0       0       0
  4052 ;;Total ram usage:        6 bytes
  4053 ;; Hardware stack levels used:    1
  4054 ;; This function calls:
  4055 ;;		Nothing
  4056 ;; This function is called by:
  4057 ;;		_GBS_Stepper_Exe
  4058 ;; This function uses a non-reentrant model
  4059 ;;
  4060                           
  4061                           
  4062                           ;psect for function i1___awmod
  4063  09B3                     i1___awmod:
  4064  09B3                     i1l1934:	
  4065                           ;incstack = 0
  4066                           ; Regs used in i1___awmod: [wreg+status,2+status,0+btemp+1]
  4067                           
  4068  09B3  01F6               	clrf	i1___awmod@sign
  4069  09B4                     i1l1936:
  4070  09B4  1FF4               	btfss	i1___awmod@dividend+1,7
  4071  09B5  29B7               	goto	u219_21
  4072  09B6  29B8               	goto	u219_20
  4073  09B7                     u219_21:
  4074  09B7  29BF               	goto	i1l1942
  4075  09B8                     u219_20:
  4076  09B8                     i1l1938:
  4077  09B8  09F3               	comf	i1___awmod@dividend,f
  4078  09B9  09F4               	comf	i1___awmod@dividend+1,f
  4079  09BA  0AF3               	incf	i1___awmod@dividend,f
  4080  09BB  1903               	skipnz
  4081  09BC  0AF4               	incf	i1___awmod@dividend+1,f
  4082  09BD                     i1l1940:
  4083  09BD  01F6               	clrf	i1___awmod@sign
  4084  09BE  0AF6               	incf	i1___awmod@sign,f
  4085  09BF                     i1l1942:
  4086  09BF  1FF2               	btfss	i1___awmod@divisor+1,7
  4087  09C0  29C2               	goto	u220_21
  4088  09C1  29C3               	goto	u220_20
  4089  09C2                     u220_21:
  4090  09C2  29C8               	goto	i1l1946
  4091  09C3                     u220_20:
  4092  09C3                     i1l1944:
  4093  09C3  09F1               	comf	i1___awmod@divisor,f
  4094  09C4  09F2               	comf	i1___awmod@divisor+1,f
  4095  09C5  0AF1               	incf	i1___awmod@divisor,f
  4096  09C6  1903               	skipnz
  4097  09C7  0AF2               	incf	i1___awmod@divisor+1,f
  4098  09C8                     i1l1946:
  4099  09C8  0871               	movf	i1___awmod@divisor,w
  4100  09C9  0472               	iorwf	i1___awmod@divisor+1,w
  4101  09CA  1903               	btfsc	3,2
  4102  09CB  29CD               	goto	u221_21
  4103  09CC  29CE               	goto	u221_20
  4104  09CD                     u221_21:
  4105  09CD  29FD               	goto	i1l1964
  4106  09CE                     u221_20:
  4107  09CE                     i1l1948:
  4108  09CE  01F5               	clrf	i1___awmod@counter
  4109  09CF  0AF5               	incf	i1___awmod@counter,f
  4110  09D0  29DC               	goto	i1l1954
  4111  09D1                     i1l1950:
  4112  09D1  3001               	movlw	1
  4113  09D2                     u222_25:
  4114  09D2  1003               	clrc
  4115  09D3  0DF1               	rlf	i1___awmod@divisor,f
  4116  09D4  0DF2               	rlf	i1___awmod@divisor+1,f
  4117  09D5  3EFF               	addlw	-1
  4118  09D6  1D03               	skipz
  4119  09D7  29D2               	goto	u222_25
  4120  09D8                     i1l1952:
  4121  09D8  3001               	movlw	1
  4122  09D9  00FF               	movwf	btemp+1
  4123  09DA  087F               	movf	btemp+1,w
  4124  09DB  07F5               	addwf	i1___awmod@counter,f
  4125  09DC                     i1l1954:
  4126  09DC  1FF2               	btfss	i1___awmod@divisor+1,7
  4127  09DD  29DF               	goto	u223_21
  4128  09DE  29E0               	goto	u223_20
  4129  09DF                     u223_21:
  4130  09DF  29D1               	goto	i1l1950
  4131  09E0                     u223_20:
  4132  09E0                     i1l1956:
  4133  09E0  0872               	movf	i1___awmod@divisor+1,w
  4134  09E1  0274               	subwf	i1___awmod@dividend+1,w
  4135  09E2  1D03               	skipz
  4136  09E3  29E6               	goto	u224_25
  4137  09E4  0871               	movf	i1___awmod@divisor,w
  4138  09E5  0273               	subwf	i1___awmod@dividend,w
  4139  09E6                     u224_25:
  4140  09E6  1C03               	skipc
  4141  09E7  29E9               	goto	u224_21
  4142  09E8  29EA               	goto	u224_20
  4143  09E9                     u224_21:
  4144  09E9  29F0               	goto	i1l1960
  4145  09EA                     u224_20:
  4146  09EA                     i1l1958:
  4147  09EA  0871               	movf	i1___awmod@divisor,w
  4148  09EB  02F3               	subwf	i1___awmod@dividend,f
  4149  09EC  0872               	movf	i1___awmod@divisor+1,w
  4150  09ED  1C03               	skipc
  4151  09EE  03F4               	decf	i1___awmod@dividend+1,f
  4152  09EF  02F4               	subwf	i1___awmod@dividend+1,f
  4153  09F0                     i1l1960:
  4154  09F0  3001               	movlw	1
  4155  09F1                     u225_25:
  4156  09F1  1003               	clrc
  4157  09F2  0CF2               	rrf	i1___awmod@divisor+1,f
  4158  09F3  0CF1               	rrf	i1___awmod@divisor,f
  4159  09F4  3EFF               	addlw	-1
  4160  09F5  1D03               	skipz
  4161  09F6  29F1               	goto	u225_25
  4162  09F7                     i1l1962:
  4163  09F7  3001               	movlw	1
  4164  09F8  02F5               	subwf	i1___awmod@counter,f
  4165  09F9  1D03               	btfss	3,2
  4166  09FA  29FC               	goto	u226_21
  4167  09FB  29FD               	goto	u226_20
  4168  09FC                     u226_21:
  4169  09FC  29E0               	goto	i1l1956
  4170  09FD                     u226_20:
  4171  09FD                     i1l1964:
  4172  09FD  0876               	movf	i1___awmod@sign,w
  4173  09FE  1903               	btfsc	3,2
  4174  09FF  2A01               	goto	u227_21
  4175  0A00  2A02               	goto	u227_20
  4176  0A01                     u227_21:
  4177  0A01  2A07               	goto	i1l1968
  4178  0A02                     u227_20:
  4179  0A02                     i1l1966:
  4180  0A02  09F3               	comf	i1___awmod@dividend,f
  4181  0A03  09F4               	comf	i1___awmod@dividend+1,f
  4182  0A04  0AF3               	incf	i1___awmod@dividend,f
  4183  0A05  1903               	skipnz
  4184  0A06  0AF4               	incf	i1___awmod@dividend+1,f
  4185  0A07                     i1l1968:
  4186  0A07  0874               	movf	i1___awmod@dividend+1,w
  4187  0A08  00F2               	movwf	?i1___awmod+1
  4188  0A09  0873               	movf	i1___awmod@dividend,w
  4189  0A0A  00F1               	movwf	?i1___awmod
  4190  0A0B                     i1l448:
  4191  0A0B  0008               	return
  4192  0A0C                     __end_ofi1___awmod:
  4193                           
  4194                           	psect	text15
  4195  0B8B                     __ptext15:	
  4196 ;; *************** function _sqrt *****************
  4197 ;; Defined at:
  4198 ;;		line 9 in file "C:\Program Files\Microchip\xc8\v2.20\pic\sources\c90\common\sprcsqrt.c"
  4199 ;; Parameters:    Size  Location     Type
  4200 ;;  a               4   39[BANK0 ] int 
  4201 ;; Auto vars:     Size  Location     Type
  4202 ;;  frac            4   64[BANK0 ] unsigned long 
  4203 ;;  root            4   60[BANK0 ] struct .
  4204 ;;  grs             4   54[BANK0 ] unsigned long 
  4205 ;;  tfrac           4   49[BANK0 ] unsigned long 
  4206 ;;  exp             2   58[BANK0 ] int 
  4207 ;;  p               1   53[BANK0 ] unsigned char 
  4208 ;;  i               1   48[BANK0 ] unsigned char 
  4209 ;;  sign            1   47[BANK0 ] unsigned char 
  4210 ;; Return value:  Size  Location     Type
  4211 ;;                  4   39[BANK0 ] unsigned char 
  4212 ;; Registers used:
  4213 ;;		wreg, status,2, status,0, btemp+1
  4214 ;; Tracked objects:
  4215 ;;		On entry : 0/0
  4216 ;;		On exit  : 0/0
  4217 ;;		Unchanged: 0/0
  4218 ;; Data sizes:     COMMON   BANK0   BANK1   BANK3   BANK2
  4219 ;;      Params:         0       4       0       0       0
  4220 ;;      Locals:         0      21       0       0       0
  4221 ;;      Temps:          0       4       0       0       0
  4222 ;;      Totals:         0      29       0       0       0
  4223 ;;Total ram usage:       29 bytes
  4224 ;; Hardware stack levels used:    1
  4225 ;; This function calls:
  4226 ;;		Nothing
  4227 ;; This function is called by:
  4228 ;;		_GBS_Stepper_Exe
  4229 ;; This function uses a non-reentrant model
  4230 ;;
  4231                           
  4232                           
  4233                           ;psect for function _sqrt
  4234  0B8B                     _sqrt:
  4235  0B8B                     i1l1554:	
  4236                           ;incstack = 0
  4237                           ; Regs used in _sqrt: [wreg+status,2+status,0+btemp+1]
  4238                           
  4239  0B8B  1283               	bcf	3,5	;RP0=0, select bank0
  4240  0B8C  1303               	bcf	3,6	;RP1=0, select bank0
  4241  0B8D  084A               	movf	sqrt@a+3,w
  4242  0B8E  3980               	andlw	128
  4243  0B8F  00FF               	movwf	btemp+1
  4244  0B90  087F               	movf	btemp+1,w
  4245  0B91  00CF               	movwf	sqrt@sign
  4246  0B92                     i1l1556:
  4247  0B92  084A               	movf	sqrt@a+3,w
  4248  0B93  00CB               	movwf	??_sqrt
  4249  0B94  074B               	addwf	??_sqrt,w
  4250  0B95  00FF               	movwf	btemp+1
  4251  0B96  087F               	movf	btemp+1,w
  4252  0B97  00D5               	movwf	sqrt@p
  4253  0B98                     i1l1558:
  4254  0B98  1FC9               	btfss	sqrt@a+2,7
  4255  0B99  2B9B               	goto	u131_21
  4256  0B9A  2B9C               	goto	u131_20
  4257  0B9B                     u131_21:
  4258  0B9B  2B9D               	goto	i1l1562
  4259  0B9C                     u131_20:
  4260  0B9C                     i1l1560:
  4261  0B9C  1455               	bsf	sqrt@p,0
  4262  0B9D                     i1l1562:
  4263  0B9D  0855               	movf	sqrt@p,w
  4264  0B9E  00CB               	movwf	??_sqrt
  4265  0B9F  01CC               	clrf	??_sqrt+1
  4266  0BA0  084B               	movf	??_sqrt,w
  4267  0BA1  00DA               	movwf	sqrt@exp
  4268  0BA2  084C               	movf	??_sqrt+1,w
  4269  0BA3  00DB               	movwf	sqrt@exp+1
  4270  0BA4  30FF               	movlw	255
  4271  0BA5  0547               	andwf	sqrt@a,w
  4272  0BA6  00E0               	movwf	sqrt@frac
  4273  0BA7  30FF               	movlw	255
  4274  0BA8  0548               	andwf	sqrt@a+1,w
  4275  0BA9  00E1               	movwf	sqrt@frac+1
  4276  0BAA  307F               	movlw	127
  4277  0BAB  0549               	andwf	sqrt@a+2,w
  4278  0BAC  00E2               	movwf	sqrt@frac+2
  4279  0BAD  3000               	movlw	0
  4280  0BAE  054A               	andwf	sqrt@a+3,w
  4281  0BAF  00E3               	movwf	sqrt@frac+3
  4282  0BB0                     i1l1564:
  4283  0BB0  085A               	movf	sqrt@exp,w
  4284  0BB1  045B               	iorwf	sqrt@exp+1,w
  4285  0BB2  1903               	btfsc	3,2
  4286  0BB3  2BB5               	goto	u132_21
  4287  0BB4  2BB6               	goto	u132_20
  4288  0BB5                     u132_21:
  4289  0BB5  2BBD               	goto	i1l1570
  4290  0BB6                     u132_20:
  4291  0BB6                     i1l1566:
  4292  0BB6  17E2               	bsf	sqrt@frac+2,7
  4293  0BB7                     i1l1568:
  4294  0BB7  0A5A               	incf	sqrt@exp,w
  4295  0BB8  045B               	iorwf	sqrt@exp+1,w
  4296  0BB9  1D03               	btfss	3,2
  4297  0BBA  2BBC               	goto	u133_21
  4298  0BBB  2BBD               	goto	u133_20
  4299  0BBC                     u133_21:
  4300  0BBC  2BC5               	goto	i1l1574
  4301  0BBD                     u133_20:
  4302  0BBD                     i1l1570:
  4303  0BBD  3000               	movlw	0
  4304  0BBE  00E3               	movwf	sqrt@frac+3
  4305  0BBF  3000               	movlw	0
  4306  0BC0  00E2               	movwf	sqrt@frac+2
  4307  0BC1  3000               	movlw	0
  4308  0BC2  00E1               	movwf	sqrt@frac+1
  4309  0BC3  3000               	movlw	0
  4310  0BC4  00E0               	movwf	sqrt@frac
  4311  0BC5                     i1l1574:
  4312  0BC5  085A               	movf	sqrt@exp,w
  4313  0BC6  045B               	iorwf	sqrt@exp+1,w
  4314  0BC7  1D03               	btfss	3,2
  4315  0BC8  2BCA               	goto	u134_21
  4316  0BC9  2BCB               	goto	u134_20
  4317  0BCA                     u134_21:
  4318  0BCA  2BD4               	goto	i1l1580
  4319  0BCB                     u134_20:
  4320  0BCB                     i1l1576:
  4321  0BCB  3000               	movlw	0
  4322  0BCC  00CA               	movwf	?_sqrt+3
  4323  0BCD  3000               	movlw	0
  4324  0BCE  00C9               	movwf	?_sqrt+2
  4325  0BCF  3000               	movlw	0
  4326  0BD0  00C8               	movwf	?_sqrt+1
  4327  0BD1  3000               	movlw	0
  4328  0BD2  00C7               	movwf	?_sqrt
  4329  0BD3  2D6A               	goto	i1l702
  4330  0BD4                     i1l1580:
  4331  0BD4  084F               	movf	sqrt@sign,w
  4332  0BD5  1903               	btfsc	3,2
  4333  0BD6  2BD8               	goto	u135_21
  4334  0BD7  2BD9               	goto	u135_20
  4335  0BD8                     u135_21:
  4336  0BD8  2BF6               	goto	i1l1586
  4337  0BD9                     u135_20:
  4338  0BD9                     i1l1582:
  4339  0BD9  3000               	movlw	0
  4340  0BDA  00DF               	movwf	sqrt@root+3
  4341  0BDB  3040               	movlw	64
  4342  0BDC  00DE               	movwf	sqrt@root+2
  4343  0BDD  3000               	movlw	0
  4344  0BDE  00DD               	movwf	sqrt@root+1
  4345  0BDF  3000               	movlw	0
  4346  0BE0  00DC               	movwf	sqrt@root
  4347  0BE1  3080               	movlw	128
  4348  0BE2  04DE               	iorwf	sqrt@root+2,f
  4349  0BE3  30FF               	movlw	255
  4350  0BE4  04DF               	iorwf	sqrt@root+3,f
  4351  0BE5  3021               	movlw	33
  4352  0BE6  1683               	bsf	3,5	;RP0=1, select bank1
  4353  0BE7  1303               	bcf	3,6	;RP1=0, select bank1
  4354  0BE8  00E7               	movwf	_errno^(0+128)
  4355  0BE9  3000               	movlw	0
  4356  0BEA  00E8               	movwf	(_errno^(0+128)+1)
  4357  0BEB  1283               	bcf	3,5	;RP0=0, select bank0
  4358  0BEC  1303               	bcf	3,6	;RP1=0, select bank0
  4359  0BED  085F               	movf	sqrt@root+3,w
  4360  0BEE  00CA               	movwf	?_sqrt+3
  4361  0BEF  085E               	movf	sqrt@root+2,w
  4362  0BF0  00C9               	movwf	?_sqrt+2
  4363  0BF1  085D               	movf	sqrt@root+1,w
  4364  0BF2  00C8               	movwf	?_sqrt+1
  4365  0BF3  085C               	movf	sqrt@root,w
  4366  0BF4  00C7               	movwf	?_sqrt
  4367  0BF5  2D6A               	goto	i1l702
  4368  0BF6                     i1l1586:
  4369  0BF6  0A5A               	incf	sqrt@exp,w
  4370  0BF7  045B               	iorwf	sqrt@exp+1,w
  4371  0BF8  1D03               	btfss	3,2
  4372  0BF9  2BFB               	goto	u136_21
  4373  0BFA  2BFC               	goto	u136_20
  4374  0BFB                     u136_21:
  4375  0BFB  2C0D               	goto	i1l1592
  4376  0BFC                     u136_20:
  4377  0BFC                     i1l1588:
  4378  0BFC  307F               	movlw	127
  4379  0BFD  00DF               	movwf	sqrt@root+3
  4380  0BFE  3080               	movlw	128
  4381  0BFF  00DE               	movwf	sqrt@root+2
  4382  0C00  3000               	movlw	0
  4383  0C01  00DD               	movwf	sqrt@root+1
  4384  0C02  3000               	movlw	0
  4385  0C03  00DC               	movwf	sqrt@root
  4386  0C04  085F               	movf	sqrt@root+3,w
  4387  0C05  00CA               	movwf	?_sqrt+3
  4388  0C06  085E               	movf	sqrt@root+2,w
  4389  0C07  00C9               	movwf	?_sqrt+2
  4390  0C08  085D               	movf	sqrt@root+1,w
  4391  0C09  00C8               	movwf	?_sqrt+1
  4392  0C0A  085C               	movf	sqrt@root,w
  4393  0C0B  00C7               	movwf	?_sqrt
  4394  0C0C  2D6A               	goto	i1l702
  4395  0C0D                     i1l1592:
  4396  0C0D  3081               	movlw	129
  4397  0C0E  07DA               	addwf	sqrt@exp,f
  4398  0C0F  1803               	skipnc
  4399  0C10  0ADB               	incf	sqrt@exp+1,f
  4400  0C11  30FF               	movlw	255
  4401  0C12  07DB               	addwf	sqrt@exp+1,f
  4402  0C13                     i1l1594:
  4403  0C13  085A               	movf	sqrt@exp,w
  4404  0C14  3901               	andlw	1
  4405  0C15  00FF               	movwf	btemp+1
  4406  0C16  087F               	movf	btemp+1,w
  4407  0C17  00D5               	movwf	sqrt@p
  4408  0C18                     i1l1596:
  4409  0C18  3001               	movlw	1
  4410  0C19  00FF               	movwf	btemp+1
  4411  0C1A                     u137_25:
  4412  0C1A  0D5B               	rlf	sqrt@exp+1,w
  4413  0C1B  0CDB               	rrf	sqrt@exp+1,f
  4414  0C1C  0CDA               	rrf	sqrt@exp,f
  4415  0C1D  0BFF               	decfsz	btemp+1,f
  4416  0C1E  2C1A               	goto	u137_25
  4417  0C1F                     i1l1598:
  4418  0C1F  307F               	movlw	127
  4419  0C20  07DA               	addwf	sqrt@exp,f
  4420  0C21  1803               	skipnc
  4421  0C22  0ADB               	incf	sqrt@exp+1,f
  4422  0C23  3000               	movlw	0
  4423  0C24  07DB               	addwf	sqrt@exp+1,f
  4424  0C25                     i1l1600:
  4425  0C25  1003               	clrc
  4426  0C26  0D60               	rlf	sqrt@frac,w
  4427  0C27  00D1               	movwf	sqrt@tfrac
  4428  0C28  0D61               	rlf	sqrt@frac+1,w
  4429  0C29  00D2               	movwf	sqrt@tfrac+1
  4430  0C2A  0D62               	rlf	sqrt@frac+2,w
  4431  0C2B  00D3               	movwf	sqrt@tfrac+2
  4432  0C2C  0D63               	rlf	sqrt@frac+3,w
  4433  0C2D  00D4               	movwf	sqrt@tfrac+3
  4434  0C2E                     i1l1602:
  4435  0C2E  3000               	movlw	0
  4436  0C2F  00E3               	movwf	sqrt@frac+3
  4437  0C30  3000               	movlw	0
  4438  0C31  00E2               	movwf	sqrt@frac+2
  4439  0C32  3000               	movlw	0
  4440  0C33  00E1               	movwf	sqrt@frac+1
  4441  0C34  3000               	movlw	0
  4442  0C35  00E0               	movwf	sqrt@frac
  4443  0C36                     i1l1604:
  4444  0C36  3001               	movlw	1
  4445  0C37  00D9               	movwf	sqrt@grs+3
  4446  0C38  3000               	movlw	0
  4447  0C39  00D8               	movwf	sqrt@grs+2
  4448  0C3A  3000               	movlw	0
  4449  0C3B  00D7               	movwf	sqrt@grs+1
  4450  0C3C  3000               	movlw	0
  4451  0C3D  00D6               	movwf	sqrt@grs
  4452  0C3E                     i1l1606:
  4453  0C3E  0855               	movf	sqrt@p,w
  4454  0C3F  1903               	btfsc	3,2
  4455  0C40  2C42               	goto	u138_21
  4456  0C41  2C43               	goto	u138_20
  4457  0C42                     u138_21:
  4458  0C42  2C4C               	goto	i1l1610
  4459  0C43                     u138_20:
  4460  0C43                     i1l1608:
  4461  0C43  3001               	movlw	1
  4462  0C44  00CB               	movwf	??_sqrt
  4463  0C45                     u139_25:
  4464  0C45  1003               	clrc
  4465  0C46  0DD1               	rlf	sqrt@tfrac,f
  4466  0C47  0DD2               	rlf	sqrt@tfrac+1,f
  4467  0C48  0DD3               	rlf	sqrt@tfrac+2,f
  4468  0C49  0DD4               	rlf	sqrt@tfrac+3,f
  4469  0C4A  0BCB               	decfsz	??_sqrt,f
  4470  0C4B  2C45               	goto	u139_25
  4471  0C4C                     i1l1610:
  4472  0C4C  01D0               	clrf	sqrt@i
  4473  0C4D  2CC4               	goto	i1l1620
  4474  0C4E                     i1l1612:
  4475  0C4E  0856               	movf	sqrt@grs,w
  4476  0C4F  04E0               	iorwf	sqrt@frac,f
  4477  0C50  0857               	movf	sqrt@grs+1,w
  4478  0C51  04E1               	iorwf	sqrt@frac+1,f
  4479  0C52  0858               	movf	sqrt@grs+2,w
  4480  0C53  04E2               	iorwf	sqrt@frac+2,f
  4481  0C54  0859               	movf	sqrt@grs+3,w
  4482  0C55  04E3               	iorwf	sqrt@frac+3,f
  4483  0C56  0863               	movf	sqrt@frac+3,w
  4484  0C57  0254               	subwf	sqrt@tfrac+3,w
  4485  0C58  1D03               	skipz
  4486  0C59  2C64               	goto	u140_25
  4487  0C5A  0862               	movf	sqrt@frac+2,w
  4488  0C5B  0253               	subwf	sqrt@tfrac+2,w
  4489  0C5C  1D03               	skipz
  4490  0C5D  2C64               	goto	u140_25
  4491  0C5E  0861               	movf	sqrt@frac+1,w
  4492  0C5F  0252               	subwf	sqrt@tfrac+1,w
  4493  0C60  1D03               	skipz
  4494  0C61  2C64               	goto	u140_25
  4495  0C62  0860               	movf	sqrt@frac,w
  4496  0C63  0251               	subwf	sqrt@tfrac,w
  4497  0C64                     u140_25:
  4498  0C64  1C03               	skipc
  4499  0C65  2C67               	goto	u140_21
  4500  0C66  2C68               	goto	u140_20
  4501  0C67                     u140_21:
  4502  0C67  2C8E               	goto	i1l1616
  4503  0C68                     u140_20:
  4504  0C68                     i1l1614:
  4505  0C68  0860               	movf	sqrt@frac,w
  4506  0C69  02D1               	subwf	sqrt@tfrac,f
  4507  0C6A  0861               	movf	sqrt@frac+1,w
  4508  0C6B  1C03               	skipc
  4509  0C6C  0F61               	incfsz	sqrt@frac+1,w
  4510  0C6D  02D2               	subwf	sqrt@tfrac+1,f
  4511  0C6E  0862               	movf	sqrt@frac+2,w
  4512  0C6F  1C03               	skipc
  4513  0C70  0F62               	incfsz	sqrt@frac+2,w
  4514  0C71  02D3               	subwf	sqrt@tfrac+2,f
  4515  0C72  0863               	movf	sqrt@frac+3,w
  4516  0C73  1C03               	skipc
  4517  0C74  0F63               	incfsz	sqrt@frac+3,w
  4518  0C75  02D4               	subwf	sqrt@tfrac+3,f
  4519  0C76  0856               	movf	sqrt@grs,w
  4520  0C77  07E0               	addwf	sqrt@frac,f
  4521  0C78  0857               	movf	sqrt@grs+1,w
  4522  0C79  1103               	clrz
  4523  0C7A  1803               	skipnc
  4524  0C7B  3E01               	addlw	1
  4525  0C7C  1903               	skipnz
  4526  0C7D  2C7F               	goto	u141_21
  4527  0C7E  07E1               	addwf	sqrt@frac+1,f
  4528  0C7F                     u141_21:
  4529  0C7F  0858               	movf	sqrt@grs+2,w
  4530  0C80  1103               	clrz
  4531  0C81  1803               	skipnc
  4532  0C82  3E01               	addlw	1
  4533  0C83  1903               	skipnz
  4534  0C84  2C86               	goto	u141_22
  4535  0C85  07E2               	addwf	sqrt@frac+2,f
  4536  0C86                     u141_22:
  4537  0C86  0859               	movf	sqrt@grs+3,w
  4538  0C87  1103               	clrz
  4539  0C88  1803               	skipnc
  4540  0C89  3E01               	addlw	1
  4541  0C8A  1903               	skipnz
  4542  0C8B  2C8D               	goto	u141_23
  4543  0C8C  07E3               	addwf	sqrt@frac+3,f
  4544  0C8D                     u141_23:
  4545  0C8D  2C9E               	goto	i1l709
  4546  0C8E                     i1l1616:
  4547  0C8E  0956               	comf	sqrt@grs,w
  4548  0C8F  00CB               	movwf	??_sqrt
  4549  0C90  0957               	comf	sqrt@grs+1,w
  4550  0C91  00CC               	movwf	??_sqrt+1
  4551  0C92  0958               	comf	sqrt@grs+2,w
  4552  0C93  00CD               	movwf	??_sqrt+2
  4553  0C94  0959               	comf	sqrt@grs+3,w
  4554  0C95  00CE               	movwf	??_sqrt+3
  4555  0C96  084B               	movf	??_sqrt,w
  4556  0C97  05E0               	andwf	sqrt@frac,f
  4557  0C98  084C               	movf	??_sqrt+1,w
  4558  0C99  05E1               	andwf	sqrt@frac+1,f
  4559  0C9A  084D               	movf	??_sqrt+2,w
  4560  0C9B  05E2               	andwf	sqrt@frac+2,f
  4561  0C9C  084E               	movf	??_sqrt+3,w
  4562  0C9D  05E3               	andwf	sqrt@frac+3,f
  4563  0C9E                     i1l709:
  4564  0C9E  0856               	movf	sqrt@grs,w
  4565  0C9F  00CB               	movwf	??_sqrt
  4566  0CA0  0857               	movf	sqrt@grs+1,w
  4567  0CA1  00CC               	movwf	??_sqrt+1
  4568  0CA2  0858               	movf	sqrt@grs+2,w
  4569  0CA3  00CD               	movwf	??_sqrt+2
  4570  0CA4  0859               	movf	sqrt@grs+3,w
  4571  0CA5  00CE               	movwf	??_sqrt+3
  4572  0CA6  3001               	movlw	1
  4573  0CA7                     u142_25:
  4574  0CA7  1003               	clrc
  4575  0CA8  0CCE               	rrf	??_sqrt+3,f
  4576  0CA9  0CCD               	rrf	??_sqrt+2,f
  4577  0CAA  0CCC               	rrf	??_sqrt+1,f
  4578  0CAB  0CCB               	rrf	??_sqrt,f
  4579  0CAC                     u142_20:
  4580  0CAC  3EFF               	addlw	-1
  4581  0CAD  1D03               	skipz
  4582  0CAE  2CA7               	goto	u142_25
  4583  0CAF  084E               	movf	??_sqrt+3,w
  4584  0CB0  00D9               	movwf	sqrt@grs+3
  4585  0CB1  084D               	movf	??_sqrt+2,w
  4586  0CB2  00D8               	movwf	sqrt@grs+2
  4587  0CB3  084C               	movf	??_sqrt+1,w
  4588  0CB4  00D7               	movwf	sqrt@grs+1
  4589  0CB5  084B               	movf	??_sqrt,w
  4590  0CB6  00D6               	movwf	sqrt@grs
  4591  0CB7  3001               	movlw	1
  4592  0CB8  00CB               	movwf	??_sqrt
  4593  0CB9                     u143_25:
  4594  0CB9  1003               	clrc
  4595  0CBA  0DD1               	rlf	sqrt@tfrac,f
  4596  0CBB  0DD2               	rlf	sqrt@tfrac+1,f
  4597  0CBC  0DD3               	rlf	sqrt@tfrac+2,f
  4598  0CBD  0DD4               	rlf	sqrt@tfrac+3,f
  4599  0CBE  0BCB               	decfsz	??_sqrt,f
  4600  0CBF  2CB9               	goto	u143_25
  4601  0CC0                     i1l1618:
  4602  0CC0  3001               	movlw	1
  4603  0CC1  00FF               	movwf	btemp+1
  4604  0CC2  087F               	movf	btemp+1,w
  4605  0CC3  07D0               	addwf	sqrt@i,f
  4606  0CC4                     i1l1620:
  4607  0CC4  3019               	movlw	25
  4608  0CC5  0250               	subwf	sqrt@i,w
  4609  0CC6  1C03               	skipc
  4610  0CC7  2CC9               	goto	u144_21
  4611  0CC8  2CCA               	goto	u144_20
  4612  0CC9                     u144_21:
  4613  0CC9  2C4E               	goto	i1l1612
  4614  0CCA                     u144_20:
  4615  0CCA                     i1l1622:
  4616  0CCA  0860               	movf	sqrt@frac,w
  4617  0CCB  00CB               	movwf	??_sqrt
  4618  0CCC  0861               	movf	sqrt@frac+1,w
  4619  0CCD  00CC               	movwf	??_sqrt+1
  4620  0CCE  0862               	movf	sqrt@frac+2,w
  4621  0CCF  00CD               	movwf	??_sqrt+2
  4622  0CD0  0863               	movf	sqrt@frac+3,w
  4623  0CD1  00CE               	movwf	??_sqrt+3
  4624  0CD2  3001               	movlw	1
  4625  0CD3                     u145_25:
  4626  0CD3  1003               	clrc
  4627  0CD4  0CCE               	rrf	??_sqrt+3,f
  4628  0CD5  0CCD               	rrf	??_sqrt+2,f
  4629  0CD6  0CCC               	rrf	??_sqrt+1,f
  4630  0CD7  0CCB               	rrf	??_sqrt,f
  4631  0CD8                     u145_20:
  4632  0CD8  3EFF               	addlw	-1
  4633  0CD9  1D03               	skipz
  4634  0CDA  2CD3               	goto	u145_25
  4635  0CDB  084E               	movf	??_sqrt+3,w
  4636  0CDC  00E3               	movwf	sqrt@frac+3
  4637  0CDD  084D               	movf	??_sqrt+2,w
  4638  0CDE  00E2               	movwf	sqrt@frac+2
  4639  0CDF  084C               	movf	??_sqrt+1,w
  4640  0CE0  00E1               	movwf	sqrt@frac+1
  4641  0CE1  084B               	movf	??_sqrt,w
  4642  0CE2  00E0               	movwf	sqrt@frac
  4643  0CE3                     i1l1624:
  4644  0CE3  3001               	movlw	1
  4645  0CE4  0560               	andwf	sqrt@frac,w
  4646  0CE5  00D6               	movwf	sqrt@grs
  4647  0CE6  3000               	movlw	0
  4648  0CE7  0561               	andwf	sqrt@frac+1,w
  4649  0CE8  00D7               	movwf	sqrt@grs+1
  4650  0CE9  3000               	movlw	0
  4651  0CEA  0562               	andwf	sqrt@frac+2,w
  4652  0CEB  00D8               	movwf	sqrt@grs+2
  4653  0CEC  3000               	movlw	0
  4654  0CED  0563               	andwf	sqrt@frac+3,w
  4655  0CEE  00D9               	movwf	sqrt@grs+3
  4656  0CEF                     i1l1626:
  4657  0CEF  0860               	movf	sqrt@frac,w
  4658  0CF0  00CB               	movwf	??_sqrt
  4659  0CF1  0861               	movf	sqrt@frac+1,w
  4660  0CF2  00CC               	movwf	??_sqrt+1
  4661  0CF3  0862               	movf	sqrt@frac+2,w
  4662  0CF4  00CD               	movwf	??_sqrt+2
  4663  0CF5  0863               	movf	sqrt@frac+3,w
  4664  0CF6  00CE               	movwf	??_sqrt+3
  4665  0CF7  3001               	movlw	1
  4666  0CF8                     u146_25:
  4667  0CF8  1003               	clrc
  4668  0CF9  0CCE               	rrf	??_sqrt+3,f
  4669  0CFA  0CCD               	rrf	??_sqrt+2,f
  4670  0CFB  0CCC               	rrf	??_sqrt+1,f
  4671  0CFC  0CCB               	rrf	??_sqrt,f
  4672  0CFD                     u146_20:
  4673  0CFD  3EFF               	addlw	-1
  4674  0CFE  1D03               	skipz
  4675  0CFF  2CF8               	goto	u146_25
  4676  0D00  084E               	movf	??_sqrt+3,w
  4677  0D01  00E3               	movwf	sqrt@frac+3
  4678  0D02  084D               	movf	??_sqrt+2,w
  4679  0D03  00E2               	movwf	sqrt@frac+2
  4680  0D04  084C               	movf	??_sqrt+1,w
  4681  0D05  00E1               	movwf	sqrt@frac+1
  4682  0D06  084B               	movf	??_sqrt,w
  4683  0D07  00E0               	movwf	sqrt@frac
  4684  0D08  0856               	movf	sqrt@grs,w
  4685  0D09  07E0               	addwf	sqrt@frac,f
  4686  0D0A  0857               	movf	sqrt@grs+1,w
  4687  0D0B  1103               	clrz
  4688  0D0C  1803               	skipnc
  4689  0D0D  3E01               	addlw	1
  4690  0D0E  1903               	skipnz
  4691  0D0F  2D11               	goto	u147_21
  4692  0D10  07E1               	addwf	sqrt@frac+1,f
  4693  0D11                     u147_21:
  4694  0D11  0858               	movf	sqrt@grs+2,w
  4695  0D12  1103               	clrz
  4696  0D13  1803               	skipnc
  4697  0D14  3E01               	addlw	1
  4698  0D15  1903               	skipnz
  4699  0D16  2D18               	goto	u147_22
  4700  0D17  07E2               	addwf	sqrt@frac+2,f
  4701  0D18                     u147_22:
  4702  0D18  0859               	movf	sqrt@grs+3,w
  4703  0D19  1103               	clrz
  4704  0D1A  1803               	skipnc
  4705  0D1B  3E01               	addlw	1
  4706  0D1C  1903               	skipnz
  4707  0D1D  2D1F               	goto	u147_23
  4708  0D1E  07E3               	addwf	sqrt@frac+3,f
  4709  0D1F                     u147_23:
  4710  0D1F                     i1l1628:
  4711  0D1F  1C63               	btfss	sqrt@frac+3,0
  4712  0D20  2D22               	goto	u148_21
  4713  0D21  2D23               	goto	u148_20
  4714  0D22                     u148_21:
  4715  0D22  2D42               	goto	i1l1634
  4716  0D23                     u148_20:
  4717  0D23                     i1l1630:
  4718  0D23  0860               	movf	sqrt@frac,w
  4719  0D24  00CB               	movwf	??_sqrt
  4720  0D25  0861               	movf	sqrt@frac+1,w
  4721  0D26  00CC               	movwf	??_sqrt+1
  4722  0D27  0862               	movf	sqrt@frac+2,w
  4723  0D28  00CD               	movwf	??_sqrt+2
  4724  0D29  0863               	movf	sqrt@frac+3,w
  4725  0D2A  00CE               	movwf	??_sqrt+3
  4726  0D2B  3001               	movlw	1
  4727  0D2C                     u149_25:
  4728  0D2C  1003               	clrc
  4729  0D2D  0CCE               	rrf	??_sqrt+3,f
  4730  0D2E  0CCD               	rrf	??_sqrt+2,f
  4731  0D2F  0CCC               	rrf	??_sqrt+1,f
  4732  0D30  0CCB               	rrf	??_sqrt,f
  4733  0D31                     u149_20:
  4734  0D31  3EFF               	addlw	-1
  4735  0D32  1D03               	skipz
  4736  0D33  2D2C               	goto	u149_25
  4737  0D34  084E               	movf	??_sqrt+3,w
  4738  0D35  00E3               	movwf	sqrt@frac+3
  4739  0D36  084D               	movf	??_sqrt+2,w
  4740  0D37  00E2               	movwf	sqrt@frac+2
  4741  0D38  084C               	movf	??_sqrt+1,w
  4742  0D39  00E1               	movwf	sqrt@frac+1
  4743  0D3A  084B               	movf	??_sqrt,w
  4744  0D3B  00E0               	movwf	sqrt@frac
  4745  0D3C                     i1l1632:
  4746  0D3C  3001               	movlw	1
  4747  0D3D  07DA               	addwf	sqrt@exp,f
  4748  0D3E  1803               	skipnc
  4749  0D3F  0ADB               	incf	sqrt@exp+1,f
  4750  0D40  3000               	movlw	0
  4751  0D41  07DB               	addwf	sqrt@exp+1,f
  4752  0D42                     i1l1634:
  4753  0D42  30FF               	movlw	255
  4754  0D43  0560               	andwf	sqrt@frac,w
  4755  0D44  00DC               	movwf	sqrt@root
  4756  0D45  30FF               	movlw	255
  4757  0D46  0561               	andwf	sqrt@frac+1,w
  4758  0D47  00DD               	movwf	sqrt@root+1
  4759  0D48  307F               	movlw	127
  4760  0D49  0562               	andwf	sqrt@frac+2,w
  4761  0D4A  00DE               	movwf	sqrt@root+2
  4762  0D4B  3000               	movlw	0
  4763  0D4C  0563               	andwf	sqrt@frac+3,w
  4764  0D4D  00DF               	movwf	sqrt@root+3
  4765  0D4E                     i1l1636:
  4766  0D4E  085A               	movf	sqrt@exp,w
  4767  0D4F  00FF               	movwf	btemp+1
  4768  0D50  087F               	movf	btemp+1,w
  4769  0D51  00D5               	movwf	sqrt@p
  4770  0D52                     i1l1638:
  4771  0D52  1C55               	btfss	sqrt@p,0
  4772  0D53  2D55               	goto	u150_21
  4773  0D54  2D56               	goto	u150_20
  4774  0D55                     u150_21:
  4775  0D55  2D57               	goto	i1l1642
  4776  0D56                     u150_20:
  4777  0D56                     i1l1640:
  4778  0D56  17DE               	bsf	sqrt@root+2,7
  4779  0D57                     i1l1642:
  4780  0D57  0855               	movf	sqrt@p,w
  4781  0D58  00CB               	movwf	??_sqrt
  4782  0D59  1003               	clrc
  4783  0D5A  0C4B               	rrf	??_sqrt,w
  4784  0D5B  00FF               	movwf	btemp+1
  4785  0D5C  087F               	movf	btemp+1,w
  4786  0D5D  00DF               	movwf	sqrt@root+3
  4787  0D5E  307F               	movlw	127
  4788  0D5F  00FF               	movwf	btemp+1
  4789  0D60  087F               	movf	btemp+1,w
  4790  0D61  05DF               	andwf	sqrt@root+3,f
  4791  0D62                     i1l1644:
  4792  0D62  085F               	movf	sqrt@root+3,w
  4793  0D63  00CA               	movwf	?_sqrt+3
  4794  0D64  085E               	movf	sqrt@root+2,w
  4795  0D65  00C9               	movwf	?_sqrt+2
  4796  0D66  085D               	movf	sqrt@root+1,w
  4797  0D67  00C8               	movwf	?_sqrt+1
  4798  0D68  085C               	movf	sqrt@root,w
  4799  0D69  00C7               	movwf	?_sqrt
  4800  0D6A                     i1l702:
  4801  0D6A  0008               	return
  4802  0D6B                     __end_of_sqrt:
  4803                           
  4804                           	psect	text16
  4805  0ACF                     __ptext16:	
  4806 ;; *************** function ___xxtofl *****************
  4807 ;; Defined at:
  4808 ;;		line 10 in file "C:\Program Files\Microchip\xc8\v2.20\pic\sources\c90\common\xxtofl.c"
  4809 ;; Parameters:    Size  Location     Type
  4810 ;;  sign            1    wreg     unsigned char 
  4811 ;;  val             4   25[BANK0 ] long 
  4812 ;; Auto vars:     Size  Location     Type
  4813 ;;  sign            1   33[BANK0 ] unsigned char 
  4814 ;;  arg             4   35[BANK0 ] unsigned long 
  4815 ;;  exp             1   34[BANK0 ] unsigned char 
  4816 ;; Return value:  Size  Location     Type
  4817 ;;                  4   25[BANK0 ] unsigned char 
  4818 ;; Registers used:
  4819 ;;		wreg, status,2, status,0, btemp+1
  4820 ;; Tracked objects:
  4821 ;;		On entry : 0/0
  4822 ;;		On exit  : 0/0
  4823 ;;		Unchanged: 0/0
  4824 ;; Data sizes:     COMMON   BANK0   BANK1   BANK3   BANK2
  4825 ;;      Params:         0       4       0       0       0
  4826 ;;      Locals:         0       6       0       0       0
  4827 ;;      Temps:          0       4       0       0       0
  4828 ;;      Totals:         0      14       0       0       0
  4829 ;;Total ram usage:       14 bytes
  4830 ;; Hardware stack levels used:    1
  4831 ;; This function calls:
  4832 ;;		Nothing
  4833 ;; This function is called by:
  4834 ;;		_GBS_Stepper_Exe
  4835 ;;		_GBS_Stepper_Planner
  4836 ;; This function uses a non-reentrant model
  4837 ;;
  4838                           
  4839                           
  4840                           ;psect for function ___xxtofl
  4841  0ACF                     ___xxtofl:
  4842                           
  4843                           ;incstack = 0
  4844                           ; Regs used in ___xxtofl: [wreg+status,2+status,0+btemp+1]
  4845                           ;___xxtofl@sign stored from wreg
  4846  0ACF  1283               	bcf	3,5	;RP0=0, select bank0
  4847  0AD0  1303               	bcf	3,6	;RP1=0, select bank0
  4848  0AD1  00C1               	movwf	___xxtofl@sign
  4849  0AD2                     i1l1886:
  4850  0AD2  0841               	movf	___xxtofl@sign,w
  4851  0AD3  1903               	btfsc	3,2
  4852  0AD4  2AD6               	goto	u205_21
  4853  0AD5  2AD7               	goto	u205_20
  4854  0AD6                     u205_21:
  4855  0AD6  2AEB               	goto	i1l1892
  4856  0AD7                     u205_20:
  4857  0AD7                     i1l1888:
  4858  0AD7  1FBC               	btfss	___xxtofl@val+3,7
  4859  0AD8  2ADA               	goto	u206_21
  4860  0AD9  2ADB               	goto	u206_20
  4861  0ADA                     u206_21:
  4862  0ADA  2AEB               	goto	i1l1892
  4863  0ADB                     u206_20:
  4864  0ADB                     i1l1890:
  4865  0ADB  0939               	comf	___xxtofl@val,w
  4866  0ADC  00C3               	movwf	___xxtofl@arg
  4867  0ADD  093A               	comf	___xxtofl@val+1,w
  4868  0ADE  00C4               	movwf	___xxtofl@arg+1
  4869  0ADF  093B               	comf	___xxtofl@val+2,w
  4870  0AE0  00C5               	movwf	___xxtofl@arg+2
  4871  0AE1  093C               	comf	___xxtofl@val+3,w
  4872  0AE2  00C6               	movwf	___xxtofl@arg+3
  4873  0AE3  0AC3               	incf	___xxtofl@arg,f
  4874  0AE4  1903               	skipnz
  4875  0AE5  0AC4               	incf	___xxtofl@arg+1,f
  4876  0AE6  1903               	skipnz
  4877  0AE7  0AC5               	incf	___xxtofl@arg+2,f
  4878  0AE8  1903               	skipnz
  4879  0AE9  0AC6               	incf	___xxtofl@arg+3,f
  4880  0AEA  2AF3               	goto	i1l735
  4881  0AEB                     i1l1892:
  4882  0AEB  083C               	movf	___xxtofl@val+3,w
  4883  0AEC  00C6               	movwf	___xxtofl@arg+3
  4884  0AED  083B               	movf	___xxtofl@val+2,w
  4885  0AEE  00C5               	movwf	___xxtofl@arg+2
  4886  0AEF  083A               	movf	___xxtofl@val+1,w
  4887  0AF0  00C4               	movwf	___xxtofl@arg+1
  4888  0AF1  0839               	movf	___xxtofl@val,w
  4889  0AF2  00C3               	movwf	___xxtofl@arg
  4890  0AF3                     i1l735:
  4891  0AF3  083C               	movf	___xxtofl@val+3,w
  4892  0AF4  043B               	iorwf	___xxtofl@val+2,w
  4893  0AF5  043A               	iorwf	___xxtofl@val+1,w
  4894  0AF6  0439               	iorwf	___xxtofl@val,w
  4895  0AF7  1D03               	skipz
  4896  0AF8  2AFA               	goto	u207_21
  4897  0AF9  2AFB               	goto	u207_20
  4898  0AFA                     u207_21:
  4899  0AFA  2B04               	goto	i1l1898
  4900  0AFB                     u207_20:
  4901  0AFB                     i1l1894:
  4902  0AFB  3000               	movlw	0
  4903  0AFC  00BC               	movwf	?___xxtofl+3
  4904  0AFD  3000               	movlw	0
  4905  0AFE  00BB               	movwf	?___xxtofl+2
  4906  0AFF  3000               	movlw	0
  4907  0B00  00BA               	movwf	?___xxtofl+1
  4908  0B01  3000               	movlw	0
  4909  0B02  00B9               	movwf	?___xxtofl
  4910  0B03  2B8A               	goto	i1l737
  4911  0B04                     i1l1898:
  4912  0B04  3096               	movlw	150
  4913  0B05  00FF               	movwf	btemp+1
  4914  0B06  087F               	movf	btemp+1,w
  4915  0B07  00C2               	movwf	___xxtofl@exp
  4916  0B08  2B16               	goto	i1l1904
  4917  0B09                     i1l1900:
  4918  0B09  3001               	movlw	1
  4919  0B0A  00FF               	movwf	btemp+1
  4920  0B0B  087F               	movf	btemp+1,w
  4921  0B0C  07C2               	addwf	___xxtofl@exp,f
  4922  0B0D                     i1l1902:
  4923  0B0D  3001               	movlw	1
  4924  0B0E                     u208_25:
  4925  0B0E  1003               	clrc
  4926  0B0F  0CC6               	rrf	___xxtofl@arg+3,f
  4927  0B10  0CC5               	rrf	___xxtofl@arg+2,f
  4928  0B11  0CC4               	rrf	___xxtofl@arg+1,f
  4929  0B12  0CC3               	rrf	___xxtofl@arg,f
  4930  0B13  3EFF               	addlw	-1
  4931  0B14  1D03               	skipz
  4932  0B15  2B0E               	goto	u208_25
  4933  0B16                     i1l1904:
  4934  0B16  30FE               	movlw	254
  4935  0B17  0546               	andwf	___xxtofl@arg+3,w
  4936  0B18  1D03               	btfss	3,2
  4937  0B19  2B1B               	goto	u209_21
  4938  0B1A  2B1C               	goto	u209_20
  4939  0B1B                     u209_21:
  4940  0B1B  2B09               	goto	i1l1900
  4941  0B1C                     u209_20:
  4942  0B1C  2B38               	goto	i1l1912
  4943  0B1D                     i1l1906:
  4944  0B1D  3001               	movlw	1
  4945  0B1E  00FF               	movwf	btemp+1
  4946  0B1F  087F               	movf	btemp+1,w
  4947  0B20  07C2               	addwf	___xxtofl@exp,f
  4948  0B21                     i1l1908:
  4949  0B21  3001               	movlw	1
  4950  0B22  07C3               	addwf	___xxtofl@arg,f
  4951  0B23  3000               	movlw	0
  4952  0B24  1803               	skipnc
  4953  0B25  3001               	movlw	1
  4954  0B26  07C4               	addwf	___xxtofl@arg+1,f
  4955  0B27  3000               	movlw	0
  4956  0B28  1803               	skipnc
  4957  0B29  3001               	movlw	1
  4958  0B2A  07C5               	addwf	___xxtofl@arg+2,f
  4959  0B2B  3000               	movlw	0
  4960  0B2C  1803               	skipnc
  4961  0B2D  3001               	movlw	1
  4962  0B2E  07C6               	addwf	___xxtofl@arg+3,f
  4963  0B2F                     i1l1910:
  4964  0B2F  3001               	movlw	1
  4965  0B30                     u210_25:
  4966  0B30  1003               	clrc
  4967  0B31  0CC6               	rrf	___xxtofl@arg+3,f
  4968  0B32  0CC5               	rrf	___xxtofl@arg+2,f
  4969  0B33  0CC4               	rrf	___xxtofl@arg+1,f
  4970  0B34  0CC3               	rrf	___xxtofl@arg,f
  4971  0B35  3EFF               	addlw	-1
  4972  0B36  1D03               	skipz
  4973  0B37  2B30               	goto	u210_25
  4974  0B38                     i1l1912:
  4975  0B38  30FF               	movlw	255
  4976  0B39  0546               	andwf	___xxtofl@arg+3,w
  4977  0B3A  1D03               	btfss	3,2
  4978  0B3B  2B3D               	goto	u211_21
  4979  0B3C  2B3E               	goto	u211_20
  4980  0B3D                     u211_21:
  4981  0B3D  2B1D               	goto	i1l1906
  4982  0B3E                     u211_20:
  4983  0B3E  2B4A               	goto	i1l1916
  4984  0B3F                     i1l1914:
  4985  0B3F  3001               	movlw	1
  4986  0B40  02C2               	subwf	___xxtofl@exp,f
  4987  0B41  3001               	movlw	1
  4988  0B42  00BD               	movwf	??___xxtofl
  4989  0B43                     u212_25:
  4990  0B43  1003               	clrc
  4991  0B44  0DC3               	rlf	___xxtofl@arg,f
  4992  0B45  0DC4               	rlf	___xxtofl@arg+1,f
  4993  0B46  0DC5               	rlf	___xxtofl@arg+2,f
  4994  0B47  0DC6               	rlf	___xxtofl@arg+3,f
  4995  0B48  0BBD               	decfsz	??___xxtofl,f
  4996  0B49  2B43               	goto	u212_25
  4997  0B4A                     i1l1916:
  4998  0B4A  1BC5               	btfsc	___xxtofl@arg+2,7
  4999  0B4B  2B4D               	goto	u213_21
  5000  0B4C  2B4E               	goto	u213_20
  5001  0B4D                     u213_21:
  5002  0B4D  2B54               	goto	i1l748
  5003  0B4E                     u213_20:
  5004  0B4E                     i1l1918:
  5005  0B4E  3002               	movlw	2
  5006  0B4F  0242               	subwf	___xxtofl@exp,w
  5007  0B50  1803               	skipnc
  5008  0B51  2B53               	goto	u214_21
  5009  0B52  2B54               	goto	u214_20
  5010  0B53                     u214_21:
  5011  0B53  2B3F               	goto	i1l1914
  5012  0B54                     u214_20:
  5013  0B54                     i1l748:
  5014  0B54  1842               	btfsc	___xxtofl@exp,0
  5015  0B55  2B57               	goto	u215_21
  5016  0B56  2B58               	goto	u215_20
  5017  0B57                     u215_21:
  5018  0B57  2B60               	goto	i1l749
  5019  0B58                     u215_20:
  5020  0B58                     i1l1920:
  5021  0B58  30FF               	movlw	255
  5022  0B59  05C3               	andwf	___xxtofl@arg,f
  5023  0B5A  30FF               	movlw	255
  5024  0B5B  05C4               	andwf	___xxtofl@arg+1,f
  5025  0B5C  307F               	movlw	127
  5026  0B5D  05C5               	andwf	___xxtofl@arg+2,f
  5027  0B5E  30FF               	movlw	255
  5028  0B5F  05C6               	andwf	___xxtofl@arg+3,f
  5029  0B60                     i1l749:
  5030  0B60  1003               	clrc
  5031  0B61  0CC2               	rrf	___xxtofl@exp,f
  5032  0B62                     i1l1922:
  5033  0B62  0842               	movf	___xxtofl@exp,w
  5034  0B63  00BD               	movwf	??___xxtofl
  5035  0B64  01BE               	clrf	??___xxtofl+1
  5036  0B65  01BF               	clrf	??___xxtofl+2
  5037  0B66  01C0               	clrf	??___xxtofl+3
  5038  0B67  3018               	movlw	24
  5039  0B68                     u216_25:
  5040  0B68  1003               	clrc
  5041  0B69  0DBD               	rlf	??___xxtofl,f
  5042  0B6A  0DBE               	rlf	??___xxtofl+1,f
  5043  0B6B  0DBF               	rlf	??___xxtofl+2,f
  5044  0B6C  0DC0               	rlf	??___xxtofl+3,f
  5045  0B6D                     u216_20:
  5046  0B6D  3EFF               	addlw	-1
  5047  0B6E  1D03               	skipz
  5048  0B6F  2B68               	goto	u216_25
  5049  0B70  083D               	movf	??___xxtofl,w
  5050  0B71  04C3               	iorwf	___xxtofl@arg,f
  5051  0B72  083E               	movf	??___xxtofl+1,w
  5052  0B73  04C4               	iorwf	___xxtofl@arg+1,f
  5053  0B74  083F               	movf	??___xxtofl+2,w
  5054  0B75  04C5               	iorwf	___xxtofl@arg+2,f
  5055  0B76  0840               	movf	??___xxtofl+3,w
  5056  0B77  04C6               	iorwf	___xxtofl@arg+3,f
  5057  0B78                     i1l1924:
  5058  0B78  0841               	movf	___xxtofl@sign,w
  5059  0B79  1903               	btfsc	3,2
  5060  0B7A  2B7C               	goto	u217_21
  5061  0B7B  2B7D               	goto	u217_20
  5062  0B7C                     u217_21:
  5063  0B7C  2B82               	goto	i1l1930
  5064  0B7D                     u217_20:
  5065  0B7D                     i1l1926:
  5066  0B7D  1FBC               	btfss	___xxtofl@val+3,7
  5067  0B7E  2B80               	goto	u218_21
  5068  0B7F  2B81               	goto	u218_20
  5069  0B80                     u218_21:
  5070  0B80  2B82               	goto	i1l1930
  5071  0B81                     u218_20:
  5072  0B81                     i1l1928:
  5073  0B81  17C6               	bsf	___xxtofl@arg+3,7
  5074  0B82                     i1l1930:
  5075  0B82  0846               	movf	___xxtofl@arg+3,w
  5076  0B83  00BC               	movwf	?___xxtofl+3
  5077  0B84  0845               	movf	___xxtofl@arg+2,w
  5078  0B85  00BB               	movwf	?___xxtofl+2
  5079  0B86  0844               	movf	___xxtofl@arg+1,w
  5080  0B87  00BA               	movwf	?___xxtofl+1
  5081  0B88  0843               	movf	___xxtofl@arg,w
  5082  0B89  00B9               	movwf	?___xxtofl
  5083  0B8A                     i1l737:
  5084  0B8A  0008               	return
  5085  0B8B                     __end_of___xxtofl:
  5086                           
  5087                           	psect	text17
  5088  096B                     __ptext17:	
  5089 ;; *************** function ___lmul *****************
  5090 ;; Defined at:
  5091 ;;		line 15 in file "C:\Program Files\Microchip\xc8\v2.20\pic\sources\c90\common\Umul32.c"
  5092 ;; Parameters:    Size  Location     Type
  5093 ;;  multiplier      4   13[BANK0 ] unsigned long 
  5094 ;;  multiplicand    4   17[BANK0 ] unsigned long 
  5095 ;; Auto vars:     Size  Location     Type
  5096 ;;  product         4   21[BANK0 ] unsigned long 
  5097 ;; Return value:  Size  Location     Type
  5098 ;;                  4   13[BANK0 ] unsigned long 
  5099 ;; Registers used:
  5100 ;;		wreg, status,2, status,0
  5101 ;; Tracked objects:
  5102 ;;		On entry : 0/0
  5103 ;;		On exit  : 0/0
  5104 ;;		Unchanged: 0/0
  5105 ;; Data sizes:     COMMON   BANK0   BANK1   BANK3   BANK2
  5106 ;;      Params:         0       8       0       0       0
  5107 ;;      Locals:         0       4       0       0       0
  5108 ;;      Temps:          1       0       0       0       0
  5109 ;;      Totals:         1      12       0       0       0
  5110 ;;Total ram usage:       13 bytes
  5111 ;; Hardware stack levels used:    1
  5112 ;; This function calls:
  5113 ;;		Nothing
  5114 ;; This function is called by:
  5115 ;;		_GBS_Stepper_Exe
  5116 ;;		_GBS_Stepper_Planner
  5117 ;; This function uses a non-reentrant model
  5118 ;;
  5119                           
  5120                           
  5121                           ;psect for function ___lmul
  5122  096B                     ___lmul:
  5123  096B                     i1l1648:	
  5124                           ;incstack = 0
  5125                           ; Regs used in ___lmul: [wreg+status,2+status,0]
  5126                           
  5127  096B  3000               	movlw	0
  5128  096C  1283               	bcf	3,5	;RP0=0, select bank0
  5129  096D  1303               	bcf	3,6	;RP1=0, select bank0
  5130  096E  00B8               	movwf	___lmul@product+3
  5131  096F  3000               	movlw	0
  5132  0970  00B7               	movwf	___lmul@product+2
  5133  0971  3000               	movlw	0
  5134  0972  00B6               	movwf	___lmul@product+1
  5135  0973  3000               	movlw	0
  5136  0974  00B5               	movwf	___lmul@product
  5137  0975                     i1l1650:
  5138  0975  1C2D               	btfss	___lmul@multiplier,0
  5139  0976  2978               	goto	u151_21
  5140  0977  2979               	goto	u151_20
  5141  0978                     u151_21:
  5142  0978  2990               	goto	i1l1654
  5143  0979                     u151_20:
  5144  0979                     i1l1652:
  5145  0979  0831               	movf	___lmul@multiplicand,w
  5146  097A  07B5               	addwf	___lmul@product,f
  5147  097B  0832               	movf	___lmul@multiplicand+1,w
  5148  097C  1103               	clrz
  5149  097D  1803               	skipnc
  5150  097E  3E01               	addlw	1
  5151  097F  1903               	skipnz
  5152  0980  2982               	goto	u152_21
  5153  0981  07B6               	addwf	___lmul@product+1,f
  5154  0982                     u152_21:
  5155  0982  0833               	movf	___lmul@multiplicand+2,w
  5156  0983  1103               	clrz
  5157  0984  1803               	skipnc
  5158  0985  3E01               	addlw	1
  5159  0986  1903               	skipnz
  5160  0987  2989               	goto	u152_22
  5161  0988  07B7               	addwf	___lmul@product+2,f
  5162  0989                     u152_22:
  5163  0989  0834               	movf	___lmul@multiplicand+3,w
  5164  098A  1103               	clrz
  5165  098B  1803               	skipnc
  5166  098C  3E01               	addlw	1
  5167  098D  1903               	skipnz
  5168  098E  2990               	goto	u152_23
  5169  098F  07B8               	addwf	___lmul@product+3,f
  5170  0990                     u152_23:
  5171  0990                     i1l1654:
  5172  0990  3001               	movlw	1
  5173  0991  00FB               	movwf	??___lmul
  5174  0992                     u153_25:
  5175  0992  1003               	clrc
  5176  0993  0DB1               	rlf	___lmul@multiplicand,f
  5177  0994  0DB2               	rlf	___lmul@multiplicand+1,f
  5178  0995  0DB3               	rlf	___lmul@multiplicand+2,f
  5179  0996  0DB4               	rlf	___lmul@multiplicand+3,f
  5180  0997  0BFB               	decfsz	??___lmul,f
  5181  0998  2992               	goto	u153_25
  5182  0999                     i1l1656:
  5183  0999  3001               	movlw	1
  5184  099A                     u154_25:
  5185  099A  1003               	clrc
  5186  099B  0CB0               	rrf	___lmul@multiplier+3,f
  5187  099C  0CAF               	rrf	___lmul@multiplier+2,f
  5188  099D  0CAE               	rrf	___lmul@multiplier+1,f
  5189  099E  0CAD               	rrf	___lmul@multiplier,f
  5190  099F  3EFF               	addlw	-1
  5191  09A0  1D03               	skipz
  5192  09A1  299A               	goto	u154_25
  5193  09A2  0830               	movf	___lmul@multiplier+3,w
  5194  09A3  042F               	iorwf	___lmul@multiplier+2,w
  5195  09A4  042E               	iorwf	___lmul@multiplier+1,w
  5196  09A5  042D               	iorwf	___lmul@multiplier,w
  5197  09A6  1D03               	skipz
  5198  09A7  29A9               	goto	u155_21
  5199  09A8  29AA               	goto	u155_20
  5200  09A9                     u155_21:
  5201  09A9  2975               	goto	i1l1650
  5202  09AA                     u155_20:
  5203  09AA                     i1l1658:
  5204  09AA  0838               	movf	___lmul@product+3,w
  5205  09AB  00B0               	movwf	?___lmul+3
  5206  09AC  0837               	movf	___lmul@product+2,w
  5207  09AD  00AF               	movwf	?___lmul+2
  5208  09AE  0836               	movf	___lmul@product+1,w
  5209  09AF  00AE               	movwf	?___lmul+1
  5210  09B0  0835               	movf	___lmul@product,w
  5211  09B1  00AD               	movwf	?___lmul
  5212  09B2                     i1l296:
  5213  09B2  0008               	return
  5214  09B3                     __end_of___lmul:
  5215                           
  5216                           	psect	text18
  5217  0A67                     __ptext18:	
  5218 ;; *************** function ___lldiv *****************
  5219 ;; Defined at:
  5220 ;;		line 5 in file "C:\Program Files\Microchip\xc8\v2.20\pic\sources\c90\common\__lldiv.c"
  5221 ;; Parameters:    Size  Location     Type
  5222 ;;  divisor         4    0[BANK0 ] unsigned long 
  5223 ;;  dividend        4    4[BANK0 ] unsigned long 
  5224 ;; Auto vars:     Size  Location     Type
  5225 ;;  quotient        4    8[BANK0 ] unsigned long 
  5226 ;;  counter         1   12[BANK0 ] unsigned char 
  5227 ;; Return value:  Size  Location     Type
  5228 ;;                  4    0[BANK0 ] unsigned long 
  5229 ;; Registers used:
  5230 ;;		wreg, status,2, status,0, btemp+1
  5231 ;; Tracked objects:
  5232 ;;		On entry : 0/0
  5233 ;;		On exit  : 0/0
  5234 ;;		Unchanged: 0/0
  5235 ;; Data sizes:     COMMON   BANK0   BANK1   BANK3   BANK2
  5236 ;;      Params:         0       8       0       0       0
  5237 ;;      Locals:         0       5       0       0       0
  5238 ;;      Temps:          1       0       0       0       0
  5239 ;;      Totals:         1      13       0       0       0
  5240 ;;Total ram usage:       14 bytes
  5241 ;; Hardware stack levels used:    1
  5242 ;; This function calls:
  5243 ;;		Nothing
  5244 ;; This function is called by:
  5245 ;;		_GBS_Stepper_Exe
  5246 ;; This function uses a non-reentrant model
  5247 ;;
  5248                           
  5249                           
  5250                           ;psect for function ___lldiv
  5251  0A67                     ___lldiv:
  5252  0A67                     i1l1678:	
  5253                           ;incstack = 0
  5254                           ; Regs used in ___lldiv: [wreg+status,2+status,0+btemp+1]
  5255                           
  5256  0A67  3000               	movlw	0
  5257  0A68  1283               	bcf	3,5	;RP0=0, select bank0
  5258  0A69  1303               	bcf	3,6	;RP1=0, select bank0
  5259  0A6A  00AB               	movwf	___lldiv@quotient+3
  5260  0A6B  3000               	movlw	0
  5261  0A6C  00AA               	movwf	___lldiv@quotient+2
  5262  0A6D  3000               	movlw	0
  5263  0A6E  00A9               	movwf	___lldiv@quotient+1
  5264  0A6F  3000               	movlw	0
  5265  0A70  00A8               	movwf	___lldiv@quotient
  5266  0A71  0823               	movf	___lldiv@divisor+3,w
  5267  0A72  0422               	iorwf	___lldiv@divisor+2,w
  5268  0A73  0421               	iorwf	___lldiv@divisor+1,w
  5269  0A74  0420               	iorwf	___lldiv@divisor,w
  5270  0A75  1903               	skipnz
  5271  0A76  2A78               	goto	u158_21
  5272  0A77  2A79               	goto	u158_20
  5273  0A78                     u158_21:
  5274  0A78  2AC6               	goto	i1l1700
  5275  0A79                     u158_20:
  5276  0A79                     i1l1680:
  5277  0A79  01AC               	clrf	___lldiv@counter
  5278  0A7A  0AAC               	incf	___lldiv@counter,f
  5279  0A7B  2A89               	goto	i1l1686
  5280  0A7C                     i1l1682:
  5281  0A7C  3001               	movlw	1
  5282  0A7D  00FA               	movwf	??___lldiv
  5283  0A7E                     u159_25:
  5284  0A7E  1003               	clrc
  5285  0A7F  0DA0               	rlf	___lldiv@divisor,f
  5286  0A80  0DA1               	rlf	___lldiv@divisor+1,f
  5287  0A81  0DA2               	rlf	___lldiv@divisor+2,f
  5288  0A82  0DA3               	rlf	___lldiv@divisor+3,f
  5289  0A83  0BFA               	decfsz	??___lldiv,f
  5290  0A84  2A7E               	goto	u159_25
  5291  0A85                     i1l1684:
  5292  0A85  3001               	movlw	1
  5293  0A86  00FF               	movwf	btemp+1
  5294  0A87  087F               	movf	btemp+1,w
  5295  0A88  07AC               	addwf	___lldiv@counter,f
  5296  0A89                     i1l1686:
  5297  0A89  1FA3               	btfss	___lldiv@divisor+3,7
  5298  0A8A  2A8C               	goto	u160_21
  5299  0A8B  2A8D               	goto	u160_20
  5300  0A8C                     u160_21:
  5301  0A8C  2A7C               	goto	i1l1682
  5302  0A8D                     u160_20:
  5303  0A8D                     i1l1688:
  5304  0A8D  3001               	movlw	1
  5305  0A8E  00FA               	movwf	??___lldiv
  5306  0A8F                     u161_25:
  5307  0A8F  1003               	clrc
  5308  0A90  0DA8               	rlf	___lldiv@quotient,f
  5309  0A91  0DA9               	rlf	___lldiv@quotient+1,f
  5310  0A92  0DAA               	rlf	___lldiv@quotient+2,f
  5311  0A93  0DAB               	rlf	___lldiv@quotient+3,f
  5312  0A94  0BFA               	decfsz	??___lldiv,f
  5313  0A95  2A8F               	goto	u161_25
  5314  0A96                     i1l1690:
  5315  0A96  0823               	movf	___lldiv@divisor+3,w
  5316  0A97  0227               	subwf	___lldiv@dividend+3,w
  5317  0A98  1D03               	skipz
  5318  0A99  2AA4               	goto	u162_25
  5319  0A9A  0822               	movf	___lldiv@divisor+2,w
  5320  0A9B  0226               	subwf	___lldiv@dividend+2,w
  5321  0A9C  1D03               	skipz
  5322  0A9D  2AA4               	goto	u162_25
  5323  0A9E  0821               	movf	___lldiv@divisor+1,w
  5324  0A9F  0225               	subwf	___lldiv@dividend+1,w
  5325  0AA0  1D03               	skipz
  5326  0AA1  2AA4               	goto	u162_25
  5327  0AA2  0820               	movf	___lldiv@divisor,w
  5328  0AA3  0224               	subwf	___lldiv@dividend,w
  5329  0AA4                     u162_25:
  5330  0AA4  1C03               	skipc
  5331  0AA5  2AA7               	goto	u162_21
  5332  0AA6  2AA8               	goto	u162_20
  5333  0AA7                     u162_21:
  5334  0AA7  2AB7               	goto	i1l1696
  5335  0AA8                     u162_20:
  5336  0AA8                     i1l1692:
  5337  0AA8  0820               	movf	___lldiv@divisor,w
  5338  0AA9  02A4               	subwf	___lldiv@dividend,f
  5339  0AAA  0821               	movf	___lldiv@divisor+1,w
  5340  0AAB  1C03               	skipc
  5341  0AAC  0F21               	incfsz	___lldiv@divisor+1,w
  5342  0AAD  02A5               	subwf	___lldiv@dividend+1,f
  5343  0AAE  0822               	movf	___lldiv@divisor+2,w
  5344  0AAF  1C03               	skipc
  5345  0AB0  0F22               	incfsz	___lldiv@divisor+2,w
  5346  0AB1  02A6               	subwf	___lldiv@dividend+2,f
  5347  0AB2  0823               	movf	___lldiv@divisor+3,w
  5348  0AB3  1C03               	skipc
  5349  0AB4  0F23               	incfsz	___lldiv@divisor+3,w
  5350  0AB5  02A7               	subwf	___lldiv@dividend+3,f
  5351  0AB6                     i1l1694:
  5352  0AB6  1428               	bsf	___lldiv@quotient,0
  5353  0AB7                     i1l1696:
  5354  0AB7  3001               	movlw	1
  5355  0AB8                     u163_25:
  5356  0AB8  1003               	clrc
  5357  0AB9  0CA3               	rrf	___lldiv@divisor+3,f
  5358  0ABA  0CA2               	rrf	___lldiv@divisor+2,f
  5359  0ABB  0CA1               	rrf	___lldiv@divisor+1,f
  5360  0ABC  0CA0               	rrf	___lldiv@divisor,f
  5361  0ABD  3EFF               	addlw	-1
  5362  0ABE  1D03               	skipz
  5363  0ABF  2AB8               	goto	u163_25
  5364  0AC0                     i1l1698:
  5365  0AC0  3001               	movlw	1
  5366  0AC1  02AC               	subwf	___lldiv@counter,f
  5367  0AC2  1D03               	btfss	3,2
  5368  0AC3  2AC5               	goto	u164_21
  5369  0AC4  2AC6               	goto	u164_20
  5370  0AC5                     u164_21:
  5371  0AC5  2A8D               	goto	i1l1688
  5372  0AC6                     u164_20:
  5373  0AC6                     i1l1700:
  5374  0AC6  082B               	movf	___lldiv@quotient+3,w
  5375  0AC7  00A3               	movwf	?___lldiv+3
  5376  0AC8  082A               	movf	___lldiv@quotient+2,w
  5377  0AC9  00A2               	movwf	?___lldiv+2
  5378  0ACA  0829               	movf	___lldiv@quotient+1,w
  5379  0ACB  00A1               	movwf	?___lldiv+1
  5380  0ACC  0828               	movf	___lldiv@quotient,w
  5381  0ACD  00A0               	movwf	?___lldiv
  5382  0ACE                     i1l318:
  5383  0ACE  0008               	return
  5384  0ACF                     __end_of___lldiv:
  5385                           
  5386                           	psect	text19
  5387  0029                     __ptext19:	
  5388 ;; *************** function ___fltol *****************
  5389 ;; Defined at:
  5390 ;;		line 43 in file "C:\Program Files\Microchip\xc8\v2.20\pic\sources\c90\common\fltol.c"
  5391 ;; Parameters:    Size  Location     Type
  5392 ;;  f1              4   18[BANK1 ] unsigned long 
  5393 ;; Auto vars:     Size  Location     Type
  5394 ;;  exp1            1   12[COMMON] unsigned char 
  5395 ;;  sign1           1   11[COMMON] unsigned char 
  5396 ;; Return value:  Size  Location     Type
  5397 ;;                  4   18[BANK1 ] long 
  5398 ;; Registers used:
  5399 ;;		wreg, status,2, status,0, btemp+1
  5400 ;; Tracked objects:
  5401 ;;		On entry : 0/0
  5402 ;;		On exit  : 0/0
  5403 ;;		Unchanged: 0/0
  5404 ;; Data sizes:     COMMON   BANK0   BANK1   BANK3   BANK2
  5405 ;;      Params:         0       0       4       0       0
  5406 ;;      Locals:         2       0       0       0       0
  5407 ;;      Temps:          0       4       0       0       0
  5408 ;;      Totals:         2       4       4       0       0
  5409 ;;Total ram usage:       10 bytes
  5410 ;; Hardware stack levels used:    1
  5411 ;; This function calls:
  5412 ;;		Nothing
  5413 ;; This function is called by:
  5414 ;;		_GBS_Stepper_Exe
  5415 ;;		_GBS_Stepper_Planner
  5416 ;; This function uses a non-reentrant model
  5417 ;;
  5418                           
  5419                           
  5420                           ;psect for function ___fltol
  5421  0029                     ___fltol:
  5422  0029                     i1l1704:	
  5423                           ;incstack = 0
  5424                           ; Regs used in ___fltol: [wreg+status,2+status,0+btemp+1]
  5425                           
  5426  0029  1003               	clrc
  5427  002A  1683               	bsf	3,5	;RP0=1, select bank1
  5428  002B  1303               	bcf	3,6	;RP1=0, select bank1
  5429  002C  0D34               	rlf	(___fltol@f1+2)^(0+128),w
  5430  002D  0D35               	rlf	(___fltol@f1+3)^(0+128),w
  5431  002E  00FF               	movwf	btemp+1
  5432  002F  087F               	movf	btemp+1,w
  5433  0030  00FD               	movwf	___fltol@exp1
  5434  0031  087D               	movf	___fltol@exp1,w
  5435  0032  1D03               	btfss	3,2
  5436  0033  2835               	goto	u165_21
  5437  0034  2836               	goto	u165_20
  5438  0035                     u165_21:
  5439  0035  283F               	goto	i1l1710
  5440  0036                     u165_20:
  5441  0036                     i1l1706:
  5442  0036  3000               	movlw	0
  5443  0037  00B5               	movwf	(?___fltol+3)^(0+128)
  5444  0038  3000               	movlw	0
  5445  0039  00B4               	movwf	(?___fltol+2)^(0+128)
  5446  003A  3000               	movlw	0
  5447  003B  00B3               	movwf	(?___fltol+1)^(0+128)
  5448  003C  3000               	movlw	0
  5449  003D  00B2               	movwf	?___fltol^(0+128)
  5450  003E  28BB               	goto	i1l468
  5451  003F                     i1l1710:
  5452  003F  0832               	movf	___fltol@f1^(0+128),w
  5453  0040  1283               	bcf	3,5	;RP0=0, select bank0
  5454  0041  1303               	bcf	3,6	;RP1=0, select bank0
  5455  0042  00EC               	movwf	??___fltol
  5456  0043  1683               	bsf	3,5	;RP0=1, select bank1
  5457  0044  1303               	bcf	3,6	;RP1=0, select bank1
  5458  0045  0833               	movf	(___fltol@f1+1)^(0+128),w
  5459  0046  1283               	bcf	3,5	;RP0=0, select bank0
  5460  0047  1303               	bcf	3,6	;RP1=0, select bank0
  5461  0048  00ED               	movwf	??___fltol+1
  5462  0049  1683               	bsf	3,5	;RP0=1, select bank1
  5463  004A  1303               	bcf	3,6	;RP1=0, select bank1
  5464  004B  0834               	movf	(___fltol@f1+2)^(0+128),w
  5465  004C  1283               	bcf	3,5	;RP0=0, select bank0
  5466  004D  1303               	bcf	3,6	;RP1=0, select bank0
  5467  004E  00EE               	movwf	??___fltol+2
  5468  004F  1683               	bsf	3,5	;RP0=1, select bank1
  5469  0050  1303               	bcf	3,6	;RP1=0, select bank1
  5470  0051  0835               	movf	(___fltol@f1+3)^(0+128),w
  5471  0052  1283               	bcf	3,5	;RP0=0, select bank0
  5472  0053  1303               	bcf	3,6	;RP1=0, select bank0
  5473  0054  00EF               	movwf	??___fltol+3
  5474  0055  301F               	movlw	31
  5475  0056                     u166_25:
  5476  0056  1003               	clrc
  5477  0057  0CEF               	rrf	??___fltol+3,f
  5478  0058  0CEE               	rrf	??___fltol+2,f
  5479  0059  0CED               	rrf	??___fltol+1,f
  5480  005A  0CEC               	rrf	??___fltol,f
  5481  005B                     u166_20:
  5482  005B  3EFF               	addlw	-1
  5483  005C  1D03               	skipz
  5484  005D  2856               	goto	u166_25
  5485  005E  086C               	movf	??___fltol,w
  5486  005F  00FF               	movwf	btemp+1
  5487  0060  087F               	movf	btemp+1,w
  5488  0061  00FC               	movwf	___fltol@sign1
  5489  0062                     i1l1712:
  5490  0062  1683               	bsf	3,5	;RP0=1, select bank1
  5491  0063  1303               	bcf	3,6	;RP1=0, select bank1
  5492  0064  17B4               	bsf	(___fltol@f1^(0+128)+2),7
  5493  0065                     i1l1714:
  5494  0065  30FF               	movlw	255
  5495  0066  05B2               	andwf	___fltol@f1^(0+128),f
  5496  0067  30FF               	movlw	255
  5497  0068  05B3               	andwf	(___fltol@f1+1)^(0+128),f
  5498  0069  30FF               	movlw	255
  5499  006A  05B4               	andwf	(___fltol@f1+2)^(0+128),f
  5500  006B  3000               	movlw	0
  5501  006C  05B5               	andwf	(___fltol@f1+3)^(0+128),f
  5502  006D                     i1l1716:
  5503  006D  3096               	movlw	150
  5504  006E  02FD               	subwf	___fltol@exp1,f
  5505  006F                     i1l1718:
  5506  006F  1FFD               	btfss	___fltol@exp1,7
  5507  0070  2872               	goto	u167_21
  5508  0071  2873               	goto	u167_20
  5509  0072                     u167_21:
  5510  0072  288D               	goto	i1l1730
  5511  0073                     u167_20:
  5512  0073                     i1l1720:
  5513  0073  087D               	movf	___fltol@exp1,w
  5514  0074  3A80               	xorlw	128
  5515  0075  3E97               	addlw	151
  5516  0076  1803               	skipnc
  5517  0077  2879               	goto	u168_21
  5518  0078  287A               	goto	u168_20
  5519  0079                     u168_21:
  5520  0079  287B               	goto	i1l1726
  5521  007A                     u168_20:
  5522  007A  2836               	goto	i1l1706
  5523  007B                     i1l1726:
  5524  007B  3001               	movlw	1
  5525  007C                     u169_25:
  5526  007C  1003               	clrc
  5527  007D  0CB5               	rrf	(___fltol@f1+3)^(0+128),f
  5528  007E  0CB4               	rrf	(___fltol@f1+2)^(0+128),f
  5529  007F  0CB3               	rrf	(___fltol@f1+1)^(0+128),f
  5530  0080  0CB2               	rrf	___fltol@f1^(0+128),f
  5531  0081  3EFF               	addlw	-1
  5532  0082  1D03               	skipz
  5533  0083  287C               	goto	u169_25
  5534  0084                     i1l1728:
  5535  0084  3001               	movlw	1
  5536  0085  00FF               	movwf	btemp+1
  5537  0086  087F               	movf	btemp+1,w
  5538  0087  07FD               	addwf	___fltol@exp1,f
  5539  0088  1D03               	btfss	3,2
  5540  0089  288B               	goto	u170_21
  5541  008A  288C               	goto	u170_20
  5542  008B                     u170_21:
  5543  008B  287B               	goto	i1l1726
  5544  008C                     u170_20:
  5545  008C  28A9               	goto	i1l1738
  5546  008D                     i1l1730:
  5547  008D  3020               	movlw	32
  5548  008E  027D               	subwf	___fltol@exp1,w
  5549  008F  1C03               	skipc
  5550  0090  2892               	goto	u171_21
  5551  0091  2893               	goto	u171_20
  5552  0092                     u171_21:
  5553  0092  28A4               	goto	i1l475
  5554  0093                     u171_20:
  5555  0093  2836               	goto	i1l1706
  5556  0094                     i1l1736:
  5557  0094  3001               	movlw	1
  5558  0095  1283               	bcf	3,5	;RP0=0, select bank0
  5559  0096  00EC               	movwf	??___fltol
  5560  0097                     u172_25:
  5561  0097  1003               	clrc
  5562  0098  1683               	bsf	3,5	;RP0=1, select bank1
  5563  0099  1303               	bcf	3,6	;RP1=0, select bank1
  5564  009A  0DB2               	rlf	___fltol@f1^(0+128),f
  5565  009B  0DB3               	rlf	(___fltol@f1+1)^(0+128),f
  5566  009C  0DB4               	rlf	(___fltol@f1+2)^(0+128),f
  5567  009D  0DB5               	rlf	(___fltol@f1+3)^(0+128),f
  5568  009E  1283               	bcf	3,5	;RP0=0, select bank0
  5569  009F  1303               	bcf	3,6	;RP1=0, select bank0
  5570  00A0  0BEC               	decfsz	??___fltol,f
  5571  00A1  2897               	goto	u172_25
  5572  00A2  3001               	movlw	1
  5573  00A3  02FD               	subwf	___fltol@exp1,f
  5574  00A4                     i1l475:
  5575  00A4  087D               	movf	___fltol@exp1,w
  5576  00A5  1D03               	btfss	3,2
  5577  00A6  28A8               	goto	u173_21
  5578  00A7  28A9               	goto	u173_20
  5579  00A8                     u173_21:
  5580  00A8  2894               	goto	i1l1736
  5581  00A9                     u173_20:
  5582  00A9                     i1l1738:
  5583  00A9  087C               	movf	___fltol@sign1,w
  5584  00AA  1903               	btfsc	3,2
  5585  00AB  28AD               	goto	u174_21
  5586  00AC  28AE               	goto	u174_20
  5587  00AD                     u174_21:
  5588  00AD  28BB               	goto	i1l478
  5589  00AE                     u174_20:
  5590  00AE                     i1l1740:
  5591  00AE  1683               	bsf	3,5	;RP0=1, select bank1
  5592  00AF  1303               	bcf	3,6	;RP1=0, select bank1
  5593  00B0  09B2               	comf	___fltol@f1^(0+128),f
  5594  00B1  09B3               	comf	(___fltol@f1+1)^(0+128),f
  5595  00B2  09B4               	comf	(___fltol@f1+2)^(0+128),f
  5596  00B3  09B5               	comf	(___fltol@f1+3)^(0+128),f
  5597  00B4  0AB2               	incf	___fltol@f1^(0+128),f
  5598  00B5  1903               	skipnz
  5599  00B6  0AB3               	incf	(___fltol@f1+1)^(0+128),f
  5600  00B7  1903               	skipnz
  5601  00B8  0AB4               	incf	(___fltol@f1+2)^(0+128),f
  5602  00B9  1903               	skipnz
  5603  00BA  0AB5               	incf	(___fltol@f1+3)^(0+128),f
  5604  00BB                     i1l478:
  5605  00BB                     i1l468:
  5606  00BB  0008               	return
  5607  00BC                     __end_of___fltol:
  5608                           
  5609                           	psect	text20
  5610  0D6B                     __ptext20:	
  5611 ;; *************** function ___fldiv *****************
  5612 ;; Defined at:
  5613 ;;		line 8 in file "C:\Program Files\Microchip\xc8\v2.20\pic\sources\c90\common\sprcdiv.c"
  5614 ;; Parameters:    Size  Location     Type
  5615 ;;  a               4   68[BANK0 ] long 
  5616 ;;  b               4   72[BANK0 ] long 
  5617 ;; Auto vars:     Size  Location     Type
  5618 ;;  grs             4   12[BANK1 ] unsigned long 
  5619 ;;  rem             4    5[BANK1 ] unsigned long 
  5620 ;;  new_exp         2   10[BANK1 ] int 
  5621 ;;  aexp            1   17[BANK1 ] unsigned char 
  5622 ;;  bexp            1   16[BANK1 ] unsigned char 
  5623 ;;  sign            1    9[BANK1 ] unsigned char 
  5624 ;; Return value:  Size  Location     Type
  5625 ;;                  4   68[BANK0 ] unsigned char 
  5626 ;; Registers used:
  5627 ;;		wreg, status,2, status,0, btemp+1
  5628 ;; Tracked objects:
  5629 ;;		On entry : 0/0
  5630 ;;		On exit  : 0/0
  5631 ;;		Unchanged: 0/0
  5632 ;; Data sizes:     COMMON   BANK0   BANK1   BANK3   BANK2
  5633 ;;      Params:         0       8       0       0       0
  5634 ;;      Locals:         0       0      13       0       0
  5635 ;;      Temps:          0       0       5       0       0
  5636 ;;      Totals:         0       8      18       0       0
  5637 ;;Total ram usage:       26 bytes
  5638 ;; Hardware stack levels used:    1
  5639 ;; This function calls:
  5640 ;;		Nothing
  5641 ;; This function is called by:
  5642 ;;		_GBS_Stepper_Exe
  5643 ;;		_GBS_Stepper_Planner
  5644 ;; This function uses a non-reentrant model
  5645 ;;
  5646                           
  5647                           
  5648                           ;psect for function ___fldiv
  5649  0D6B                     ___fldiv:
  5650  0D6B                     i1l1742:	
  5651                           ;incstack = 0
  5652                           ; Regs used in ___fldiv: [wreg+status,2+status,0+btemp+1]
  5653                           
  5654  0D6B  1283               	bcf	3,5	;RP0=0, select bank0
  5655  0D6C  1303               	bcf	3,6	;RP1=0, select bank0
  5656  0D6D  086B               	movf	___fldiv@b+3,w
  5657  0D6E  3980               	andlw	128
  5658  0D6F  00FF               	movwf	btemp+1
  5659  0D70  087F               	movf	btemp+1,w
  5660  0D71  1683               	bsf	3,5	;RP0=1, select bank1
  5661  0D72  1303               	bcf	3,6	;RP1=0, select bank1
  5662  0D73  00A9               	movwf	___fldiv@sign^(0+128)
  5663  0D74                     i1l1744:
  5664  0D74  1283               	bcf	3,5	;RP0=0, select bank0
  5665  0D75  1303               	bcf	3,6	;RP1=0, select bank0
  5666  0D76  086B               	movf	___fldiv@b+3,w
  5667  0D77  1683               	bsf	3,5	;RP0=1, select bank1
  5668  0D78  1303               	bcf	3,6	;RP1=0, select bank1
  5669  0D79  00A0               	movwf	??___fldiv^(0+128)
  5670  0D7A  0720               	addwf	??___fldiv^(0+128),w
  5671  0D7B  00FF               	movwf	btemp+1
  5672  0D7C  087F               	movf	btemp+1,w
  5673  0D7D  00B0               	movwf	___fldiv@bexp^(0+128)
  5674  0D7E                     i1l1746:
  5675  0D7E  1283               	bcf	3,5	;RP0=0, select bank0
  5676  0D7F  1303               	bcf	3,6	;RP1=0, select bank0
  5677  0D80  1FEA               	btfss	___fldiv@b+2,7
  5678  0D81  2D83               	goto	u175_21
  5679  0D82  2D84               	goto	u175_20
  5680  0D83                     u175_21:
  5681  0D83  2D87               	goto	i1l1750
  5682  0D84                     u175_20:
  5683  0D84                     i1l1748:
  5684  0D84  1683               	bsf	3,5	;RP0=1, select bank1
  5685  0D85  1303               	bcf	3,6	;RP1=0, select bank1
  5686  0D86  1430               	bsf	___fldiv@bexp^(0+128),0
  5687  0D87                     i1l1750:
  5688  0D87  1683               	bsf	3,5	;RP0=1, select bank1
  5689  0D88  1303               	bcf	3,6	;RP1=0, select bank1
  5690  0D89  0830               	movf	___fldiv@bexp^(0+128),w
  5691  0D8A  1903               	btfsc	3,2
  5692  0D8B  2D8D               	goto	u176_21
  5693  0D8C  2D8E               	goto	u176_20
  5694  0D8D                     u176_21:
  5695  0D8D  2DA1               	goto	i1l1760
  5696  0D8E                     u176_20:
  5697  0D8E                     i1l1752:
  5698  0D8E  0A30               	incf	___fldiv@bexp^(0+128),w
  5699  0D8F  1D03               	btfss	3,2
  5700  0D90  2D92               	goto	u177_21
  5701  0D91  2D93               	goto	u177_20
  5702  0D92                     u177_21:
  5703  0D92  2D9D               	goto	i1l1756
  5704  0D93                     u177_20:
  5705  0D93                     i1l1754:
  5706  0D93  3000               	movlw	0
  5707  0D94  1283               	bcf	3,5	;RP0=0, select bank0
  5708  0D95  1303               	bcf	3,6	;RP1=0, select bank0
  5709  0D96  00EB               	movwf	___fldiv@b+3
  5710  0D97  3000               	movlw	0
  5711  0D98  00EA               	movwf	___fldiv@b+2
  5712  0D99  3000               	movlw	0
  5713  0D9A  00E9               	movwf	___fldiv@b+1
  5714  0D9B  3000               	movlw	0
  5715  0D9C  00E8               	movwf	___fldiv@b
  5716  0D9D                     i1l1756:
  5717  0D9D  1283               	bcf	3,5	;RP0=0, select bank0
  5718  0D9E  17EA               	bsf	___fldiv@b+2,7
  5719  0D9F                     i1l1758:
  5720  0D9F  01EB               	clrf	___fldiv@b+3
  5721  0DA0  2DAB               	goto	i1l1762
  5722  0DA1                     i1l1760:
  5723  0DA1  3000               	movlw	0
  5724  0DA2  1283               	bcf	3,5	;RP0=0, select bank0
  5725  0DA3  1303               	bcf	3,6	;RP1=0, select bank0
  5726  0DA4  00EB               	movwf	___fldiv@b+3
  5727  0DA5  3000               	movlw	0
  5728  0DA6  00EA               	movwf	___fldiv@b+2
  5729  0DA7  3000               	movlw	0
  5730  0DA8  00E9               	movwf	___fldiv@b+1
  5731  0DA9  3000               	movlw	0
  5732  0DAA  00E8               	movwf	___fldiv@b
  5733  0DAB                     i1l1762:
  5734  0DAB  0867               	movf	___fldiv@a+3,w
  5735  0DAC  3980               	andlw	128
  5736  0DAD  00FF               	movwf	btemp+1
  5737  0DAE  087F               	movf	btemp+1,w
  5738  0DAF  1683               	bsf	3,5	;RP0=1, select bank1
  5739  0DB0  1303               	bcf	3,6	;RP1=0, select bank1
  5740  0DB1  06A9               	xorwf	___fldiv@sign^(0+128),f
  5741  0DB2                     i1l1764:
  5742  0DB2  1283               	bcf	3,5	;RP0=0, select bank0
  5743  0DB3  1303               	bcf	3,6	;RP1=0, select bank0
  5744  0DB4  0867               	movf	___fldiv@a+3,w
  5745  0DB5  1683               	bsf	3,5	;RP0=1, select bank1
  5746  0DB6  1303               	bcf	3,6	;RP1=0, select bank1
  5747  0DB7  00A0               	movwf	??___fldiv^(0+128)
  5748  0DB8  0720               	addwf	??___fldiv^(0+128),w
  5749  0DB9  00FF               	movwf	btemp+1
  5750  0DBA  087F               	movf	btemp+1,w
  5751  0DBB  00B1               	movwf	___fldiv@aexp^(0+128)
  5752  0DBC                     i1l1766:
  5753  0DBC  1283               	bcf	3,5	;RP0=0, select bank0
  5754  0DBD  1303               	bcf	3,6	;RP1=0, select bank0
  5755  0DBE  1FE6               	btfss	___fldiv@a+2,7
  5756  0DBF  2DC1               	goto	u178_21
  5757  0DC0  2DC2               	goto	u178_20
  5758  0DC1                     u178_21:
  5759  0DC1  2DC5               	goto	i1l1770
  5760  0DC2                     u178_20:
  5761  0DC2                     i1l1768:
  5762  0DC2  1683               	bsf	3,5	;RP0=1, select bank1
  5763  0DC3  1303               	bcf	3,6	;RP1=0, select bank1
  5764  0DC4  1431               	bsf	___fldiv@aexp^(0+128),0
  5765  0DC5                     i1l1770:
  5766  0DC5  1683               	bsf	3,5	;RP0=1, select bank1
  5767  0DC6  1303               	bcf	3,6	;RP1=0, select bank1
  5768  0DC7  0831               	movf	___fldiv@aexp^(0+128),w
  5769  0DC8  1903               	btfsc	3,2
  5770  0DC9  2DCB               	goto	u179_21
  5771  0DCA  2DCC               	goto	u179_20
  5772  0DCB                     u179_21:
  5773  0DCB  2DDF               	goto	i1l1780
  5774  0DCC                     u179_20:
  5775  0DCC                     i1l1772:
  5776  0DCC  0A31               	incf	___fldiv@aexp^(0+128),w
  5777  0DCD  1D03               	btfss	3,2
  5778  0DCE  2DD0               	goto	u180_21
  5779  0DCF  2DD1               	goto	u180_20
  5780  0DD0                     u180_21:
  5781  0DD0  2DDB               	goto	i1l1776
  5782  0DD1                     u180_20:
  5783  0DD1                     i1l1774:
  5784  0DD1  3000               	movlw	0
  5785  0DD2  1283               	bcf	3,5	;RP0=0, select bank0
  5786  0DD3  1303               	bcf	3,6	;RP1=0, select bank0
  5787  0DD4  00E7               	movwf	___fldiv@a+3
  5788  0DD5  3000               	movlw	0
  5789  0DD6  00E6               	movwf	___fldiv@a+2
  5790  0DD7  3000               	movlw	0
  5791  0DD8  00E5               	movwf	___fldiv@a+1
  5792  0DD9  3000               	movlw	0
  5793  0DDA  00E4               	movwf	___fldiv@a
  5794  0DDB                     i1l1776:
  5795  0DDB  1283               	bcf	3,5	;RP0=0, select bank0
  5796  0DDC  17E6               	bsf	___fldiv@a+2,7
  5797  0DDD                     i1l1778:
  5798  0DDD  01E7               	clrf	___fldiv@a+3
  5799  0DDE  2DE9               	goto	i1l631
  5800  0DDF                     i1l1780:
  5801  0DDF  3000               	movlw	0
  5802  0DE0  1283               	bcf	3,5	;RP0=0, select bank0
  5803  0DE1  1303               	bcf	3,6	;RP1=0, select bank0
  5804  0DE2  00E7               	movwf	___fldiv@a+3
  5805  0DE3  3000               	movlw	0
  5806  0DE4  00E6               	movwf	___fldiv@a+2
  5807  0DE5  3000               	movlw	0
  5808  0DE6  00E5               	movwf	___fldiv@a+1
  5809  0DE7  3000               	movlw	0
  5810  0DE8  00E4               	movwf	___fldiv@a
  5811  0DE9                     i1l631:
  5812  0DE9  0867               	movf	___fldiv@a+3,w
  5813  0DEA  0466               	iorwf	___fldiv@a+2,w
  5814  0DEB  0465               	iorwf	___fldiv@a+1,w
  5815  0DEC  0464               	iorwf	___fldiv@a,w
  5816  0DED  1D03               	skipz
  5817  0DEE  2DF0               	goto	u181_21
  5818  0DEF  2DF1               	goto	u181_20
  5819  0DF0                     u181_21:
  5820  0DF0  2E0E               	goto	i1l1790
  5821  0DF1                     u181_20:
  5822  0DF1                     i1l1782:
  5823  0DF1  3000               	movlw	0
  5824  0DF2  00EB               	movwf	___fldiv@b+3
  5825  0DF3  3000               	movlw	0
  5826  0DF4  00EA               	movwf	___fldiv@b+2
  5827  0DF5  3000               	movlw	0
  5828  0DF6  00E9               	movwf	___fldiv@b+1
  5829  0DF7  3000               	movlw	0
  5830  0DF8  00E8               	movwf	___fldiv@b
  5831  0DF9  3080               	movlw	128
  5832  0DFA  04EA               	iorwf	___fldiv@b+2,f
  5833  0DFB  307F               	movlw	127
  5834  0DFC  04EB               	iorwf	___fldiv@b+3,f
  5835  0DFD                     i1l1784:
  5836  0DFD  1683               	bsf	3,5	;RP0=1, select bank1
  5837  0DFE  1303               	bcf	3,6	;RP1=0, select bank1
  5838  0DFF  0829               	movf	___fldiv@sign^(0+128),w
  5839  0E00  00FF               	movwf	btemp+1
  5840  0E01  087F               	movf	btemp+1,w
  5841  0E02  1283               	bcf	3,5	;RP0=0, select bank0
  5842  0E03  1303               	bcf	3,6	;RP1=0, select bank0
  5843  0E04  04EB               	iorwf	___fldiv@b+3,f
  5844  0E05                     i1l1786:
  5845  0E05  086B               	movf	___fldiv@b+3,w
  5846  0E06  00E7               	movwf	?___fldiv+3
  5847  0E07  086A               	movf	___fldiv@b+2,w
  5848  0E08  00E6               	movwf	?___fldiv+2
  5849  0E09  0869               	movf	___fldiv@b+1,w
  5850  0E0A  00E5               	movwf	?___fldiv+1
  5851  0E0B  0868               	movf	___fldiv@b,w
  5852  0E0C  00E4               	movwf	?___fldiv
  5853  0E0D  2FFF               	goto	i1l633
  5854  0E0E                     i1l1790:
  5855  0E0E  1683               	bsf	3,5	;RP0=1, select bank1
  5856  0E0F  1303               	bcf	3,6	;RP1=0, select bank1
  5857  0E10  0830               	movf	___fldiv@bexp^(0+128),w
  5858  0E11  1D03               	btfss	3,2
  5859  0E12  2E14               	goto	u182_21
  5860  0E13  2E15               	goto	u182_20
  5861  0E14                     u182_21:
  5862  0E14  2E20               	goto	i1l1796
  5863  0E15                     u182_20:
  5864  0E15                     i1l1792:
  5865  0E15  3000               	movlw	0
  5866  0E16  1283               	bcf	3,5	;RP0=0, select bank0
  5867  0E17  1303               	bcf	3,6	;RP1=0, select bank0
  5868  0E18  00E7               	movwf	?___fldiv+3
  5869  0E19  3000               	movlw	0
  5870  0E1A  00E6               	movwf	?___fldiv+2
  5871  0E1B  3000               	movlw	0
  5872  0E1C  00E5               	movwf	?___fldiv+1
  5873  0E1D  3000               	movlw	0
  5874  0E1E  00E4               	movwf	?___fldiv
  5875  0E1F  2FFF               	goto	i1l633
  5876  0E20                     i1l1796:
  5877  0E20  0830               	movf	___fldiv@bexp^(0+128),w
  5878  0E21  00A0               	movwf	??___fldiv^(0+128)
  5879  0E22  01A1               	clrf	(??___fldiv^(0+128)+1)
  5880  0E23  0821               	movf	(??___fldiv+1)^(0+128),w
  5881  0E24  00A3               	movwf	((??___fldiv+2)^(0+128)+1)
  5882  0E25  0831               	movf	___fldiv@aexp^(0+128),w
  5883  0E26  0220               	subwf	??___fldiv^(0+128),w
  5884  0E27  00A2               	movwf	(??___fldiv+2)^(0+128)
  5885  0E28  1C03               	skipc
  5886  0E29  03A3               	decf	((??___fldiv+2)^(0+128)+1),f
  5887  0E2A  0822               	movf	(??___fldiv+2)^(0+128),w
  5888  0E2B  3E7F               	addlw	127
  5889  0E2C  00AA               	movwf	___fldiv@new_exp^(0+128)
  5890  0E2D  0823               	movf	(??___fldiv+3)^(0+128),w
  5891  0E2E  1803               	skipnc
  5892  0E2F  3E01               	addlw	1
  5893  0E30  3E00               	addlw	0
  5894  0E31  00AB               	movwf	(___fldiv@new_exp+1)^(0+128)
  5895  0E32                     i1l1798:
  5896  0E32  1283               	bcf	3,5	;RP0=0, select bank0
  5897  0E33  1303               	bcf	3,6	;RP1=0, select bank0
  5898  0E34  086B               	movf	___fldiv@b+3,w
  5899  0E35  1683               	bsf	3,5	;RP0=1, select bank1
  5900  0E36  1303               	bcf	3,6	;RP1=0, select bank1
  5901  0E37  00A8               	movwf	(___fldiv@rem+3)^(0+128)
  5902  0E38  1283               	bcf	3,5	;RP0=0, select bank0
  5903  0E39  1303               	bcf	3,6	;RP1=0, select bank0
  5904  0E3A  086A               	movf	___fldiv@b+2,w
  5905  0E3B  1683               	bsf	3,5	;RP0=1, select bank1
  5906  0E3C  1303               	bcf	3,6	;RP1=0, select bank1
  5907  0E3D  00A7               	movwf	(___fldiv@rem+2)^(0+128)
  5908  0E3E  1283               	bcf	3,5	;RP0=0, select bank0
  5909  0E3F  1303               	bcf	3,6	;RP1=0, select bank0
  5910  0E40  0869               	movf	___fldiv@b+1,w
  5911  0E41  1683               	bsf	3,5	;RP0=1, select bank1
  5912  0E42  1303               	bcf	3,6	;RP1=0, select bank1
  5913  0E43  00A6               	movwf	(___fldiv@rem+1)^(0+128)
  5914  0E44  1283               	bcf	3,5	;RP0=0, select bank0
  5915  0E45  1303               	bcf	3,6	;RP1=0, select bank0
  5916  0E46  0868               	movf	___fldiv@b,w
  5917  0E47  1683               	bsf	3,5	;RP0=1, select bank1
  5918  0E48  1303               	bcf	3,6	;RP1=0, select bank1
  5919  0E49  00A5               	movwf	___fldiv@rem^(0+128)
  5920  0E4A                     i1l1800:
  5921  0E4A  3000               	movlw	0
  5922  0E4B  1283               	bcf	3,5	;RP0=0, select bank0
  5923  0E4C  1303               	bcf	3,6	;RP1=0, select bank0
  5924  0E4D  00EB               	movwf	___fldiv@b+3
  5925  0E4E  3000               	movlw	0
  5926  0E4F  00EA               	movwf	___fldiv@b+2
  5927  0E50  3000               	movlw	0
  5928  0E51  00E9               	movwf	___fldiv@b+1
  5929  0E52  3000               	movlw	0
  5930  0E53  00E8               	movwf	___fldiv@b
  5931  0E54                     i1l1802:
  5932  0E54  3000               	movlw	0
  5933  0E55  1683               	bsf	3,5	;RP0=1, select bank1
  5934  0E56  1303               	bcf	3,6	;RP1=0, select bank1
  5935  0E57  00AF               	movwf	(___fldiv@grs+3)^(0+128)
  5936  0E58  3000               	movlw	0
  5937  0E59  00AE               	movwf	(___fldiv@grs+2)^(0+128)
  5938  0E5A  3000               	movlw	0
  5939  0E5B  00AD               	movwf	(___fldiv@grs+1)^(0+128)
  5940  0E5C  3000               	movlw	0
  5941  0E5D  00AC               	movwf	___fldiv@grs^(0+128)
  5942  0E5E                     i1l1804:
  5943  0E5E  01B1               	clrf	___fldiv@aexp^(0+128)
  5944  0E5F  2EDC               	goto	i1l1824
  5945  0E60                     i1l1806:
  5946  0E60  0831               	movf	___fldiv@aexp^(0+128),w
  5947  0E61  1903               	btfsc	3,2
  5948  0E62  2E64               	goto	u183_21
  5949  0E63  2E65               	goto	u183_20
  5950  0E64                     u183_21:
  5951  0E64  2E8D               	goto	i1l1816
  5952  0E65                     u183_20:
  5953  0E65                     i1l1808:
  5954  0E65  3001               	movlw	1
  5955  0E66  00A0               	movwf	??___fldiv^(0+128)
  5956  0E67                     u184_25:
  5957  0E67  1003               	clrc
  5958  0E68  0DA5               	rlf	___fldiv@rem^(0+128),f
  5959  0E69  0DA6               	rlf	(___fldiv@rem+1)^(0+128),f
  5960  0E6A  0DA7               	rlf	(___fldiv@rem+2)^(0+128),f
  5961  0E6B  0DA8               	rlf	(___fldiv@rem+3)^(0+128),f
  5962  0E6C  0BA0               	decfsz	??___fldiv^(0+128),f
  5963  0E6D  2E67               	goto	u184_25
  5964  0E6E  3001               	movlw	1
  5965  0E6F  00A0               	movwf	??___fldiv^(0+128)
  5966  0E70                     u185_25:
  5967  0E70  1003               	clrc
  5968  0E71  1283               	bcf	3,5	;RP0=0, select bank0
  5969  0E72  1303               	bcf	3,6	;RP1=0, select bank0
  5970  0E73  0DE8               	rlf	___fldiv@b,f
  5971  0E74  0DE9               	rlf	___fldiv@b+1,f
  5972  0E75  0DEA               	rlf	___fldiv@b+2,f
  5973  0E76  0DEB               	rlf	___fldiv@b+3,f
  5974  0E77  1683               	bsf	3,5	;RP0=1, select bank1
  5975  0E78  1303               	bcf	3,6	;RP1=0, select bank1
  5976  0E79  0BA0               	decfsz	??___fldiv^(0+128),f
  5977  0E7A  2E70               	goto	u185_25
  5978  0E7B                     i1l1810:
  5979  0E7B  1FAF               	btfss	(___fldiv@grs+3)^(0+128),7
  5980  0E7C  2E7E               	goto	u186_21
  5981  0E7D  2E7F               	goto	u186_20
  5982  0E7E                     u186_21:
  5983  0E7E  2E82               	goto	i1l1814
  5984  0E7F                     u186_20:
  5985  0E7F                     i1l1812:
  5986  0E7F  1283               	bcf	3,5	;RP0=0, select bank0
  5987  0E80  1303               	bcf	3,6	;RP1=0, select bank0
  5988  0E81  1468               	bsf	___fldiv@b,0
  5989  0E82                     i1l1814:
  5990  0E82  3001               	movlw	1
  5991  0E83  1683               	bsf	3,5	;RP0=1, select bank1
  5992  0E84  1303               	bcf	3,6	;RP1=0, select bank1
  5993  0E85  00A0               	movwf	??___fldiv^(0+128)
  5994  0E86                     u187_25:
  5995  0E86  1003               	clrc
  5996  0E87  0DAC               	rlf	___fldiv@grs^(0+128),f
  5997  0E88  0DAD               	rlf	(___fldiv@grs+1)^(0+128),f
  5998  0E89  0DAE               	rlf	(___fldiv@grs+2)^(0+128),f
  5999  0E8A  0DAF               	rlf	(___fldiv@grs+3)^(0+128),f
  6000  0E8B  0BA0               	decfsz	??___fldiv^(0+128),f
  6001  0E8C  2E86               	goto	u187_25
  6002  0E8D                     i1l1816:
  6003  0E8D  1283               	bcf	3,5	;RP0=0, select bank0
  6004  0E8E  1303               	bcf	3,6	;RP1=0, select bank0
  6005  0E8F  0867               	movf	___fldiv@a+3,w
  6006  0E90  1683               	bsf	3,5	;RP0=1, select bank1
  6007  0E91  1303               	bcf	3,6	;RP1=0, select bank1
  6008  0E92  0228               	subwf	(___fldiv@rem+3)^(0+128),w
  6009  0E93  1D03               	skipz
  6010  0E94  2EAB               	goto	u188_25
  6011  0E95  1283               	bcf	3,5	;RP0=0, select bank0
  6012  0E96  1303               	bcf	3,6	;RP1=0, select bank0
  6013  0E97  0866               	movf	___fldiv@a+2,w
  6014  0E98  1683               	bsf	3,5	;RP0=1, select bank1
  6015  0E99  1303               	bcf	3,6	;RP1=0, select bank1
  6016  0E9A  0227               	subwf	(___fldiv@rem+2)^(0+128),w
  6017  0E9B  1D03               	skipz
  6018  0E9C  2EAB               	goto	u188_25
  6019  0E9D  1283               	bcf	3,5	;RP0=0, select bank0
  6020  0E9E  1303               	bcf	3,6	;RP1=0, select bank0
  6021  0E9F  0865               	movf	___fldiv@a+1,w
  6022  0EA0  1683               	bsf	3,5	;RP0=1, select bank1
  6023  0EA1  1303               	bcf	3,6	;RP1=0, select bank1
  6024  0EA2  0226               	subwf	(___fldiv@rem+1)^(0+128),w
  6025  0EA3  1D03               	skipz
  6026  0EA4  2EAB               	goto	u188_25
  6027  0EA5  1283               	bcf	3,5	;RP0=0, select bank0
  6028  0EA6  1303               	bcf	3,6	;RP1=0, select bank0
  6029  0EA7  0864               	movf	___fldiv@a,w
  6030  0EA8  1683               	bsf	3,5	;RP0=1, select bank1
  6031  0EA9  1303               	bcf	3,6	;RP1=0, select bank1
  6032  0EAA  0225               	subwf	___fldiv@rem^(0+128),w
  6033  0EAB                     u188_25:
  6034  0EAB  1C03               	skipc
  6035  0EAC  2EAE               	goto	u188_21
  6036  0EAD  2EAF               	goto	u188_20
  6037  0EAE                     u188_21:
  6038  0EAE  2ED8               	goto	i1l1822
  6039  0EAF                     u188_20:
  6040  0EAF                     i1l1818:
  6041  0EAF  172F               	bsf	(___fldiv@grs^(0+128)+3),6
  6042  0EB0                     i1l1820:
  6043  0EB0  1283               	bcf	3,5	;RP0=0, select bank0
  6044  0EB1  1303               	bcf	3,6	;RP1=0, select bank0
  6045  0EB2  0864               	movf	___fldiv@a,w
  6046  0EB3  1683               	bsf	3,5	;RP0=1, select bank1
  6047  0EB4  1303               	bcf	3,6	;RP1=0, select bank1
  6048  0EB5  02A5               	subwf	___fldiv@rem^(0+128),f
  6049  0EB6  1283               	bcf	3,5	;RP0=0, select bank0
  6050  0EB7  1303               	bcf	3,6	;RP1=0, select bank0
  6051  0EB8  0865               	movf	___fldiv@a+1,w
  6052  0EB9  1C03               	skipc
  6053  0EBA  0F65               	incfsz	___fldiv@a+1,w
  6054  0EBB  2EBD               	goto	u189_25
  6055  0EBC  2EC0               	goto	u189_26
  6056  0EBD                     u189_25:
  6057  0EBD  1683               	bsf	3,5	;RP0=1, select bank1
  6058  0EBE  1303               	bcf	3,6	;RP1=0, select bank1
  6059  0EBF  02A6               	subwf	(___fldiv@rem+1)^(0+128),f
  6060  0EC0                     u189_26:
  6061  0EC0  1283               	bcf	3,5	;RP0=0, select bank0
  6062  0EC1  1303               	bcf	3,6	;RP1=0, select bank0
  6063  0EC2  0866               	movf	___fldiv@a+2,w
  6064  0EC3  1C03               	skipc
  6065  0EC4  0F66               	incfsz	___fldiv@a+2,w
  6066  0EC5  2EC7               	goto	u189_27
  6067  0EC6  2ECA               	goto	u189_28
  6068  0EC7                     u189_27:
  6069  0EC7  1683               	bsf	3,5	;RP0=1, select bank1
  6070  0EC8  1303               	bcf	3,6	;RP1=0, select bank1
  6071  0EC9  02A7               	subwf	(___fldiv@rem+2)^(0+128),f
  6072  0ECA                     u189_28:
  6073  0ECA  1283               	bcf	3,5	;RP0=0, select bank0
  6074  0ECB  1303               	bcf	3,6	;RP1=0, select bank0
  6075  0ECC  0867               	movf	___fldiv@a+3,w
  6076  0ECD  1C03               	skipc
  6077  0ECE  0F67               	incfsz	___fldiv@a+3,w
  6078  0ECF  2ED1               	goto	u189_29
  6079  0ED0  2ED4               	goto	u189_20
  6080  0ED1                     u189_29:
  6081  0ED1  1683               	bsf	3,5	;RP0=1, select bank1
  6082  0ED2  1303               	bcf	3,6	;RP1=0, select bank1
  6083  0ED3  02A8               	subwf	(___fldiv@rem+3)^(0+128),f
  6084  0ED4                     u189_20:
  6085  0ED4  1283               	bcf	3,5	;RP0=0, select bank0
  6086  0ED5  1303               	bcf	3,6	;RP1=0, select bank0
  6087  0ED6  1683               	bsf	3,5	;RP0=1, select bank1
  6088  0ED7  1303               	bcf	3,6	;RP1=0, select bank1
  6089  0ED8                     i1l1822:
  6090  0ED8  3001               	movlw	1
  6091  0ED9  00FF               	movwf	btemp+1
  6092  0EDA  087F               	movf	btemp+1,w
  6093  0EDB  07B1               	addwf	___fldiv@aexp^(0+128),f
  6094  0EDC                     i1l1824:
  6095  0EDC  301A               	movlw	26
  6096  0EDD  0231               	subwf	___fldiv@aexp^(0+128),w
  6097  0EDE  1C03               	skipc
  6098  0EDF  2EE1               	goto	u190_21
  6099  0EE0  2EE2               	goto	u190_20
  6100  0EE1                     u190_21:
  6101  0EE1  2E60               	goto	i1l1806
  6102  0EE2                     u190_20:
  6103  0EE2                     i1l1826:
  6104  0EE2  0828               	movf	(___fldiv@rem+3)^(0+128),w
  6105  0EE3  0427               	iorwf	(___fldiv@rem+2)^(0+128),w
  6106  0EE4  0426               	iorwf	(___fldiv@rem+1)^(0+128),w
  6107  0EE5  0425               	iorwf	___fldiv@rem^(0+128),w
  6108  0EE6  1903               	skipnz
  6109  0EE7  2EE9               	goto	u191_21
  6110  0EE8  2EEA               	goto	u191_20
  6111  0EE9                     u191_21:
  6112  0EE9  2F13               	goto	i1l1840
  6113  0EEA                     u191_20:
  6114  0EEA                     i1l1828:
  6115  0EEA  142C               	bsf	___fldiv@grs^(0+128),0
  6116  0EEB  2F13               	goto	i1l1840
  6117  0EEC                     i1l1830:
  6118  0EEC  3001               	movlw	1
  6119  0EED  1683               	bsf	3,5	;RP0=1, select bank1
  6120  0EEE  1303               	bcf	3,6	;RP1=0, select bank1
  6121  0EEF  00A0               	movwf	??___fldiv^(0+128)
  6122  0EF0                     u192_25:
  6123  0EF0  1003               	clrc
  6124  0EF1  1283               	bcf	3,5	;RP0=0, select bank0
  6125  0EF2  1303               	bcf	3,6	;RP1=0, select bank0
  6126  0EF3  0DE8               	rlf	___fldiv@b,f
  6127  0EF4  0DE9               	rlf	___fldiv@b+1,f
  6128  0EF5  0DEA               	rlf	___fldiv@b+2,f
  6129  0EF6  0DEB               	rlf	___fldiv@b+3,f
  6130  0EF7  1683               	bsf	3,5	;RP0=1, select bank1
  6131  0EF8  1303               	bcf	3,6	;RP1=0, select bank1
  6132  0EF9  0BA0               	decfsz	??___fldiv^(0+128),f
  6133  0EFA  2EF0               	goto	u192_25
  6134  0EFB                     i1l1832:
  6135  0EFB  1FAF               	btfss	(___fldiv@grs+3)^(0+128),7
  6136  0EFC  2EFE               	goto	u193_21
  6137  0EFD  2EFF               	goto	u193_20
  6138  0EFE                     u193_21:
  6139  0EFE  2F02               	goto	i1l1836
  6140  0EFF                     u193_20:
  6141  0EFF                     i1l1834:
  6142  0EFF  1283               	bcf	3,5	;RP0=0, select bank0
  6143  0F00  1303               	bcf	3,6	;RP1=0, select bank0
  6144  0F01  1468               	bsf	___fldiv@b,0
  6145  0F02                     i1l1836:
  6146  0F02  3001               	movlw	1
  6147  0F03  1683               	bsf	3,5	;RP0=1, select bank1
  6148  0F04  1303               	bcf	3,6	;RP1=0, select bank1
  6149  0F05  00A0               	movwf	??___fldiv^(0+128)
  6150  0F06                     u194_25:
  6151  0F06  1003               	clrc
  6152  0F07  0DAC               	rlf	___fldiv@grs^(0+128),f
  6153  0F08  0DAD               	rlf	(___fldiv@grs+1)^(0+128),f
  6154  0F09  0DAE               	rlf	(___fldiv@grs+2)^(0+128),f
  6155  0F0A  0DAF               	rlf	(___fldiv@grs+3)^(0+128),f
  6156  0F0B  0BA0               	decfsz	??___fldiv^(0+128),f
  6157  0F0C  2F06               	goto	u194_25
  6158  0F0D                     i1l1838:
  6159  0F0D  30FF               	movlw	255
  6160  0F0E  07AA               	addwf	___fldiv@new_exp^(0+128),f
  6161  0F0F  1803               	skipnc
  6162  0F10  0AAB               	incf	(___fldiv@new_exp+1)^(0+128),f
  6163  0F11  30FF               	movlw	255
  6164  0F12  07AB               	addwf	(___fldiv@new_exp+1)^(0+128),f
  6165  0F13                     i1l1840:
  6166  0F13  1283               	bcf	3,5	;RP0=0, select bank0
  6167  0F14  1303               	bcf	3,6	;RP1=0, select bank0
  6168  0F15  1FEA               	btfss	___fldiv@b+2,7
  6169  0F16  2F18               	goto	u195_21
  6170  0F17  2F19               	goto	u195_20
  6171  0F18                     u195_21:
  6172  0F18  2EEC               	goto	i1l1830
  6173  0F19                     u195_20:
  6174  0F19                     i1l1842:
  6175  0F19  1683               	bsf	3,5	;RP0=1, select bank1
  6176  0F1A  1303               	bcf	3,6	;RP1=0, select bank1
  6177  0F1B  01B1               	clrf	___fldiv@aexp^(0+128)
  6178  0F1C                     i1l1844:
  6179  0F1C  1FAF               	btfss	(___fldiv@grs+3)^(0+128),7
  6180  0F1D  2F1F               	goto	u196_21
  6181  0F1E  2F20               	goto	u196_20
  6182  0F1F                     u196_21:
  6183  0F1F  2F40               	goto	i1l1852
  6184  0F20                     u196_20:
  6185  0F20                     i1l1846:
  6186  0F20  30FF               	movlw	255
  6187  0F21  052C               	andwf	___fldiv@grs^(0+128),w
  6188  0F22  00A0               	movwf	??___fldiv^(0+128)
  6189  0F23  30FF               	movlw	255
  6190  0F24  052D               	andwf	(___fldiv@grs+1)^(0+128),w
  6191  0F25  00A1               	movwf	(??___fldiv^(0+128)+1)
  6192  0F26  30FF               	movlw	255
  6193  0F27  052E               	andwf	(___fldiv@grs+2)^(0+128),w
  6194  0F28  00A2               	movwf	(??___fldiv^(0+128)+2)
  6195  0F29  307F               	movlw	127
  6196  0F2A  052F               	andwf	(___fldiv@grs+3)^(0+128),w
  6197  0F2B  00A3               	movwf	(??___fldiv^(0+128)+3)
  6198  0F2C  0823               	movf	(??___fldiv+3)^(0+128),w
  6199  0F2D  0422               	iorwf	(??___fldiv+2)^(0+128),w
  6200  0F2E  0421               	iorwf	(??___fldiv+1)^(0+128),w
  6201  0F2F  0420               	iorwf	??___fldiv^(0+128),w
  6202  0F30  1903               	skipnz
  6203  0F31  2F33               	goto	u197_21
  6204  0F32  2F34               	goto	u197_20
  6205  0F33                     u197_21:
  6206  0F33  2F39               	goto	i1l647
  6207  0F34                     u197_20:
  6208  0F34                     i1l1848:
  6209  0F34  1683               	bsf	3,5	;RP0=1, select bank1
  6210  0F35  1303               	bcf	3,6	;RP1=0, select bank1
  6211  0F36  01B1               	clrf	___fldiv@aexp^(0+128)
  6212  0F37  0AB1               	incf	___fldiv@aexp^(0+128),f
  6213  0F38  2F40               	goto	i1l1852
  6214  0F39                     i1l647:
  6215  0F39  1283               	bcf	3,5	;RP0=0, select bank0
  6216  0F3A  1303               	bcf	3,6	;RP1=0, select bank0
  6217  0F3B  1C68               	btfss	___fldiv@b,0
  6218  0F3C  2F3E               	goto	u198_21
  6219  0F3D  2F3F               	goto	u198_20
  6220  0F3E                     u198_21:
  6221  0F3E  2F40               	goto	i1l1852
  6222  0F3F                     u198_20:
  6223  0F3F  2F34               	goto	i1l1848
  6224  0F40                     i1l1852:
  6225  0F40  1683               	bsf	3,5	;RP0=1, select bank1
  6226  0F41  1303               	bcf	3,6	;RP1=0, select bank1
  6227  0F42  0831               	movf	___fldiv@aexp^(0+128),w
  6228  0F43  1903               	btfsc	3,2
  6229  0F44  2F46               	goto	u199_21
  6230  0F45  2F47               	goto	u199_20
  6231  0F46                     u199_21:
  6232  0F46  2F98               	goto	i1l1862
  6233  0F47                     u199_20:
  6234  0F47                     i1l1854:
  6235  0F47  3001               	movlw	1
  6236  0F48  1283               	bcf	3,5	;RP0=0, select bank0
  6237  0F49  1303               	bcf	3,6	;RP1=0, select bank0
  6238  0F4A  07E8               	addwf	___fldiv@b,f
  6239  0F4B  3000               	movlw	0
  6240  0F4C  1803               	skipnc
  6241  0F4D  3001               	movlw	1
  6242  0F4E  07E9               	addwf	___fldiv@b+1,f
  6243  0F4F  3000               	movlw	0
  6244  0F50  1803               	skipnc
  6245  0F51  3001               	movlw	1
  6246  0F52  07EA               	addwf	___fldiv@b+2,f
  6247  0F53  3000               	movlw	0
  6248  0F54  1803               	skipnc
  6249  0F55  3001               	movlw	1
  6250  0F56  07EB               	addwf	___fldiv@b+3,f
  6251  0F57                     i1l1856:
  6252  0F57  1C6B               	btfss	___fldiv@b+3,0
  6253  0F58  2F5A               	goto	u200_21
  6254  0F59  2F5B               	goto	u200_20
  6255  0F5A                     u200_21:
  6256  0F5A  2F98               	goto	i1l1862
  6257  0F5B                     u200_20:
  6258  0F5B                     i1l1858:
  6259  0F5B  0868               	movf	___fldiv@b,w
  6260  0F5C  1683               	bsf	3,5	;RP0=1, select bank1
  6261  0F5D  1303               	bcf	3,6	;RP1=0, select bank1
  6262  0F5E  00A0               	movwf	??___fldiv^(0+128)
  6263  0F5F  1283               	bcf	3,5	;RP0=0, select bank0
  6264  0F60  1303               	bcf	3,6	;RP1=0, select bank0
  6265  0F61  0869               	movf	___fldiv@b+1,w
  6266  0F62  1683               	bsf	3,5	;RP0=1, select bank1
  6267  0F63  1303               	bcf	3,6	;RP1=0, select bank1
  6268  0F64  00A1               	movwf	(??___fldiv^(0+128)+1)
  6269  0F65  1283               	bcf	3,5	;RP0=0, select bank0
  6270  0F66  1303               	bcf	3,6	;RP1=0, select bank0
  6271  0F67  086A               	movf	___fldiv@b+2,w
  6272  0F68  1683               	bsf	3,5	;RP0=1, select bank1
  6273  0F69  1303               	bcf	3,6	;RP1=0, select bank1
  6274  0F6A  00A2               	movwf	(??___fldiv^(0+128)+2)
  6275  0F6B  1283               	bcf	3,5	;RP0=0, select bank0
  6276  0F6C  1303               	bcf	3,6	;RP1=0, select bank0
  6277  0F6D  086B               	movf	___fldiv@b+3,w
  6278  0F6E  1683               	bsf	3,5	;RP0=1, select bank1
  6279  0F6F  1303               	bcf	3,6	;RP1=0, select bank1
  6280  0F70  00A3               	movwf	(??___fldiv^(0+128)+3)
  6281  0F71  3001               	movlw	1
  6282  0F72  00A4               	movwf	(??___fldiv+4)^(0+128)
  6283  0F73                     u201_25:
  6284  0F73  0D23               	rlf	(??___fldiv^(0+128)+3),w
  6285  0F74  0CA3               	rrf	(??___fldiv^(0+128)+3),f
  6286  0F75  0CA2               	rrf	(??___fldiv^(0+128)+2),f
  6287  0F76  0CA1               	rrf	(??___fldiv^(0+128)+1),f
  6288  0F77  0CA0               	rrf	??___fldiv^(0+128),f
  6289  0F78                     u201_20:
  6290  0F78  0BA4               	decfsz	(??___fldiv+4)^(0+128),f
  6291  0F79  2F73               	goto	u201_25
  6292  0F7A  0823               	movf	(??___fldiv+3)^(0+128),w
  6293  0F7B  1283               	bcf	3,5	;RP0=0, select bank0
  6294  0F7C  1303               	bcf	3,6	;RP1=0, select bank0
  6295  0F7D  00EB               	movwf	___fldiv@b+3
  6296  0F7E  1683               	bsf	3,5	;RP0=1, select bank1
  6297  0F7F  1303               	bcf	3,6	;RP1=0, select bank1
  6298  0F80  0822               	movf	(??___fldiv+2)^(0+128),w
  6299  0F81  1283               	bcf	3,5	;RP0=0, select bank0
  6300  0F82  1303               	bcf	3,6	;RP1=0, select bank0
  6301  0F83  00EA               	movwf	___fldiv@b+2
  6302  0F84  1683               	bsf	3,5	;RP0=1, select bank1
  6303  0F85  1303               	bcf	3,6	;RP1=0, select bank1
  6304  0F86  0821               	movf	(??___fldiv+1)^(0+128),w
  6305  0F87  1283               	bcf	3,5	;RP0=0, select bank0
  6306  0F88  1303               	bcf	3,6	;RP1=0, select bank0
  6307  0F89  00E9               	movwf	___fldiv@b+1
  6308  0F8A  1683               	bsf	3,5	;RP0=1, select bank1
  6309  0F8B  1303               	bcf	3,6	;RP1=0, select bank1
  6310  0F8C  0820               	movf	??___fldiv^(0+128),w
  6311  0F8D  1283               	bcf	3,5	;RP0=0, select bank0
  6312  0F8E  1303               	bcf	3,6	;RP1=0, select bank0
  6313  0F8F  00E8               	movwf	___fldiv@b
  6314  0F90                     i1l1860:
  6315  0F90  3001               	movlw	1
  6316  0F91  1683               	bsf	3,5	;RP0=1, select bank1
  6317  0F92  1303               	bcf	3,6	;RP1=0, select bank1
  6318  0F93  07AA               	addwf	___fldiv@new_exp^(0+128),f
  6319  0F94  1803               	skipnc
  6320  0F95  0AAB               	incf	(___fldiv@new_exp+1)^(0+128),f
  6321  0F96  3000               	movlw	0
  6322  0F97  07AB               	addwf	(___fldiv@new_exp+1)^(0+128),f
  6323  0F98                     i1l1862:
  6324  0F98  1683               	bsf	3,5	;RP0=1, select bank1
  6325  0F99  1303               	bcf	3,6	;RP1=0, select bank1
  6326  0F9A  082B               	movf	(___fldiv@new_exp+1)^(0+128),w
  6327  0F9B  3A80               	xorlw	128
  6328  0F9C  00FF               	movwf	btemp+1
  6329  0F9D  3080               	movlw	128
  6330  0F9E  027F               	subwf	btemp+1,w
  6331  0F9F  1D03               	skipz
  6332  0FA0  2FA3               	goto	u202_25
  6333  0FA1  30FF               	movlw	255
  6334  0FA2  022A               	subwf	___fldiv@new_exp^(0+128),w
  6335  0FA3                     u202_25:
  6336  0FA3  1C03               	skipc
  6337  0FA4  2FA6               	goto	u202_21
  6338  0FA5  2FA7               	goto	u202_20
  6339  0FA6                     u202_21:
  6340  0FA6  2FB7               	goto	i1l1866
  6341  0FA7                     u202_20:
  6342  0FA7                     i1l1864:
  6343  0FA7  30FF               	movlw	255
  6344  0FA8  1683               	bsf	3,5	;RP0=1, select bank1
  6345  0FA9  1303               	bcf	3,6	;RP1=0, select bank1
  6346  0FAA  00AA               	movwf	___fldiv@new_exp^(0+128)
  6347  0FAB  3000               	movlw	0
  6348  0FAC  00AB               	movwf	(___fldiv@new_exp^(0+128)+1)
  6349  0FAD  3000               	movlw	0
  6350  0FAE  1283               	bcf	3,5	;RP0=0, select bank0
  6351  0FAF  1303               	bcf	3,6	;RP1=0, select bank0
  6352  0FB0  00EB               	movwf	___fldiv@b+3
  6353  0FB1  3000               	movlw	0
  6354  0FB2  00EA               	movwf	___fldiv@b+2
  6355  0FB3  3000               	movlw	0
  6356  0FB4  00E9               	movwf	___fldiv@b+1
  6357  0FB5  3000               	movlw	0
  6358  0FB6  00E8               	movwf	___fldiv@b
  6359  0FB7                     i1l1866:
  6360  0FB7  1683               	bsf	3,5	;RP0=1, select bank1
  6361  0FB8  1303               	bcf	3,6	;RP1=0, select bank1
  6362  0FB9  082B               	movf	(___fldiv@new_exp+1)^(0+128),w
  6363  0FBA  3A80               	xorlw	128
  6364  0FBB  00FF               	movwf	btemp+1
  6365  0FBC  3080               	movlw	128
  6366  0FBD  027F               	subwf	btemp+1,w
  6367  0FBE  1D03               	skipz
  6368  0FBF  2FC2               	goto	u203_25
  6369  0FC0  3001               	movlw	1
  6370  0FC1  022A               	subwf	___fldiv@new_exp^(0+128),w
  6371  0FC2                     u203_25:
  6372  0FC2  1803               	skipnc
  6373  0FC3  2FC5               	goto	u203_21
  6374  0FC4  2FC6               	goto	u203_20
  6375  0FC5                     u203_21:
  6376  0FC5  2FD7               	goto	i1l1874
  6377  0FC6                     u203_20:
  6378  0FC6                     i1l1868:
  6379  0FC6  1683               	bsf	3,5	;RP0=1, select bank1
  6380  0FC7  1303               	bcf	3,6	;RP1=0, select bank1
  6381  0FC8  01AA               	clrf	___fldiv@new_exp^(0+128)
  6382  0FC9  01AB               	clrf	(___fldiv@new_exp+1)^(0+128)
  6383  0FCA                     i1l1870:
  6384  0FCA  3000               	movlw	0
  6385  0FCB  1283               	bcf	3,5	;RP0=0, select bank0
  6386  0FCC  1303               	bcf	3,6	;RP1=0, select bank0
  6387  0FCD  00EB               	movwf	___fldiv@b+3
  6388  0FCE  3000               	movlw	0
  6389  0FCF  00EA               	movwf	___fldiv@b+2
  6390  0FD0  3000               	movlw	0
  6391  0FD1  00E9               	movwf	___fldiv@b+1
  6392  0FD2  3000               	movlw	0
  6393  0FD3  00E8               	movwf	___fldiv@b
  6394  0FD4                     i1l1872:
  6395  0FD4  1683               	bsf	3,5	;RP0=1, select bank1
  6396  0FD5  1303               	bcf	3,6	;RP1=0, select bank1
  6397  0FD6  01A9               	clrf	___fldiv@sign^(0+128)
  6398  0FD7                     i1l1874:
  6399  0FD7  1683               	bsf	3,5	;RP0=1, select bank1
  6400  0FD8  1303               	bcf	3,6	;RP1=0, select bank1
  6401  0FD9  082A               	movf	___fldiv@new_exp^(0+128),w
  6402  0FDA  00FF               	movwf	btemp+1
  6403  0FDB  087F               	movf	btemp+1,w
  6404  0FDC  00B0               	movwf	___fldiv@bexp^(0+128)
  6405  0FDD                     i1l1876:
  6406  0FDD  1C30               	btfss	___fldiv@bexp^(0+128),0
  6407  0FDE  2FE0               	goto	u204_21
  6408  0FDF  2FE1               	goto	u204_20
  6409  0FE0                     u204_21:
  6410  0FE0  2FE5               	goto	i1l1880
  6411  0FE1                     u204_20:
  6412  0FE1                     i1l1878:
  6413  0FE1  1283               	bcf	3,5	;RP0=0, select bank0
  6414  0FE2  1303               	bcf	3,6	;RP1=0, select bank0
  6415  0FE3  17EA               	bsf	___fldiv@b+2,7
  6416  0FE4  2FEB               	goto	i1l655
  6417  0FE5                     i1l1880:
  6418  0FE5  307F               	movlw	127
  6419  0FE6  00FF               	movwf	btemp+1
  6420  0FE7  087F               	movf	btemp+1,w
  6421  0FE8  1283               	bcf	3,5	;RP0=0, select bank0
  6422  0FE9  1303               	bcf	3,6	;RP1=0, select bank0
  6423  0FEA  05EA               	andwf	___fldiv@b+2,f
  6424  0FEB                     i1l655:
  6425  0FEB  1683               	bsf	3,5	;RP0=1, select bank1
  6426  0FEC  1303               	bcf	3,6	;RP1=0, select bank1
  6427  0FED  0830               	movf	___fldiv@bexp^(0+128),w
  6428  0FEE  00A0               	movwf	??___fldiv^(0+128)
  6429  0FEF  1003               	clrc
  6430  0FF0  0C20               	rrf	??___fldiv^(0+128),w
  6431  0FF1  00FF               	movwf	btemp+1
  6432  0FF2  087F               	movf	btemp+1,w
  6433  0FF3  1283               	bcf	3,5	;RP0=0, select bank0
  6434  0FF4  1303               	bcf	3,6	;RP1=0, select bank0
  6435  0FF5  00EB               	movwf	___fldiv@b+3
  6436  0FF6  1683               	bsf	3,5	;RP0=1, select bank1
  6437  0FF7  1303               	bcf	3,6	;RP1=0, select bank1
  6438  0FF8  0829               	movf	___fldiv@sign^(0+128),w
  6439  0FF9  00FF               	movwf	btemp+1
  6440  0FFA  087F               	movf	btemp+1,w
  6441  0FFB  1283               	bcf	3,5	;RP0=0, select bank0
  6442  0FFC  1303               	bcf	3,6	;RP1=0, select bank0
  6443  0FFD  04EB               	iorwf	___fldiv@b+3,f
  6444  0FFE  2E05               	goto	i1l1786
  6445  0FFF                     i1l633:
  6446  0FFF  0008               	return
  6447  1000                     __end_of___fldiv:
  6448  007E                     btemp	set	126	;btemp
  6449  007E                     wtemp0	set	126
  6450                           
  6451                           	psect	config
  6452                           
  6453                           ;Config register CONFIG1 @ 0x2007
  6454                           ;	Oscillator Selection bits
  6455                           ;	FOSC = HS, HS oscillator: High-speed crystal/resonator on RA6/OSC2/CLKOUT and RA7/OSC1
      +                          /CLKIN
  6456                           ;	Watchdog Timer Enable bit
  6457                           ;	WDTE = OFF, WDT disabled and can be enabled by SWDTEN bit of the WDTCON register
  6458                           ;	Power-up Timer Enable bit
  6459                           ;	PWRTE = OFF, PWRT disabled
  6460                           ;	RE3/MCLR pin function select bit
  6461                           ;	MCLRE = ON, RE3/MCLR pin function is MCLR
  6462                           ;	Code Protection bit
  6463                           ;	CP = OFF, Program memory code protection is disabled
  6464                           ;	Data Code Protection bit
  6465                           ;	CPD = OFF, Data memory code protection is disabled
  6466                           ;	Brown Out Reset Selection bits
  6467                           ;	BOREN = OFF, BOR disabled
  6468                           ;	Internal External Switchover bit
  6469                           ;	IESO = OFF, Internal/External Switchover mode is disabled
  6470                           ;	Fail-Safe Clock Monitor Enabled bit
  6471                           ;	FCMEN = OFF, Fail-Safe Clock Monitor is disabled
  6472                           ;	Low Voltage Programming Enable bit
  6473                           ;	LVP = OFF, RB3 pin has digital I/O, HV on MCLR must be used for programming
  6474                           ;	In-Circuit Debugger Mode bit
  6475                           ;	DEBUG = 0x1, unprogrammed default
  6476  2007                     	org	8199
  6477  2007  20F2               	dw	8434
  6478                           
  6479                           ;Config register CONFIG2 @ 0x2008
  6480                           ;	Brown-out Reset Selection bit
  6481                           ;	BOR4V = BOR21V, Brown-out Reset set to 2.1V
  6482                           ;	Flash Program Memory Self Write Enable bits
  6483                           ;	WRT = OFF, Write protection off
  6484  2008                     	org	8200
  6485  2008  3EFF               	dw	16127

Data Sizes:
    Strings     0
    Constant    0
    Data        0
    BSS         94
    Persistent  0
    Stack       0

Auto Spaces:
    Space          Size  Autos    Used
    COMMON           13     13      13
    BANK0            80     80      80
    BANK1            80     71      73
    BANK3            85      9      21
    BANK2            96      0      80

Pointer List with Targets:

    GBS_Stepper_Exe@sBufferX	PTR struct . size(1) Largest target is 80
		 -> sBufferA(BANK2[80]), 

    GBS_Stepper_Exe@stepperX	PTR struct . size(1) Largest target is 12
		 -> stepperA(BANK3[12]), 

    GBS_Stepper_Buffer_Init@sBufferX	PTR struct . size(1) Largest target is 80
		 -> sBufferA(BANK2[80]), 


Critical Paths under _main in COMMON

    None.

Critical Paths under _ISR in COMMON

    _GBS_Stepper_Exe->___fltol
    i1___bmul->i1___awmod
    _sqrt->___lmul
    ___xxtofl->___lmul
    ___lmul->___lldiv
    ___lldiv->i1___bmul
    ___fltol->___lmul
    ___fldiv->___lmul

Critical Paths under _main in BANK0

    None.

Critical Paths under _ISR in BANK0

    _GBS_Stepper_Exe->___fltol
    _sqrt->___xxtofl
    ___xxtofl->___lmul
    ___lmul->___lldiv
    ___fltol->___fldiv
    ___fldiv->_sqrt

Critical Paths under _main in BANK1

    None.

Critical Paths under _ISR in BANK1

    _T2I_ISR->_GBS_Stepper_Exe
    _GBS_Stepper_Exe->___fltol
    ___fltol->___fldiv

Critical Paths under _main in BANK3

    _main->___awmod
    _GBS_Stepper_Init->_GBS_Stepper_Buffer_Init
    _GBS_Stepper_Buffer_Init->___bmul
    _GBS_Interrupt_Init->_GBS_T2I_Config

Critical Paths under _ISR in BANK3

    None.

Critical Paths under _main in BANK2

    None.

Critical Paths under _ISR in BANK2

    None.

Call Graph Tables:

 ---------------------------------------------------------------------------------
 (Depth) Function   	        Calls       Base Space   Used Autos Params    Refs
 ---------------------------------------------------------------------------------
 (0) _main                                                 3     3      0    2685
                                              6 BANK3      3     3      0
                 _GBS_Interrupt_Init
                   _GBS_Stepper_Init
                            ___awmod
                             ___bmul
 ---------------------------------------------------------------------------------
 (1) ___awmod                                              6     2      4     800
                                              0 BANK3      6     2      4
 ---------------------------------------------------------------------------------
 (1) _GBS_Stepper_Init                                     0     0      0    1151
            _GBS_Stepper_Buffer_Init
                  _GBS_Timer2_Config
 ---------------------------------------------------------------------------------
 (2) _GBS_Timer2_Config                                    5     2      3     316
                                              0 BANK3      5     2      3
 ---------------------------------------------------------------------------------
 (2) _GBS_Stepper_Buffer_Init                              3     3      0     835
                                              3 BANK3      3     3      0
                             ___bmul
 ---------------------------------------------------------------------------------
 (1) ___bmul                                               3     2      1     712
                                              0 BANK3      3     2      1
 ---------------------------------------------------------------------------------
 (1) _GBS_Interrupt_Init                                   0     0      0      22
               _GBS_Interrupt_Enable
                     _GBS_T2I_Config
 ---------------------------------------------------------------------------------
 (2) _GBS_T2I_Config                                       1     1      0      22
                                              0 BANK3      1     1      0
 ---------------------------------------------------------------------------------
 (2) _GBS_Interrupt_Enable                                 0     0      0       0
 ---------------------------------------------------------------------------------
 Estimated maximum stack depth 2
 ---------------------------------------------------------------------------------
 (Depth) Function   	        Calls       Base Space   Used Autos Params    Refs
 ---------------------------------------------------------------------------------
 (4) _ISR                                                  4     4      0   13460
                                             67 BANK1      4     4      0
                            _T2I_ISR
 ---------------------------------------------------------------------------------
 (5) _T2I_ISR                                              0     0      0   13460
                    _GBS_Stepper_Exe
                 _GBS_Stepper_Update
 ---------------------------------------------------------------------------------
 (6) _GBS_Stepper_Update                                   0     0      0       0
 ---------------------------------------------------------------------------------
 (6) _GBS_Stepper_Exe                                     45    44      1   13460
                                             22 BANK1     45    44      1
                            ___fldiv
                            ___fltol
                            ___lldiv
                             ___lmul
                           ___xxtofl
                               _sqrt
                          i1___awmod
                           i1___bmul
 ---------------------------------------------------------------------------------
 (7) i1___bmul                                             3     2      1     410
                                              6 COMMON     3     2      1
                          i1___awmod (ARG)
 ---------------------------------------------------------------------------------
 (7) i1___awmod                                            6     2      4     400
                                              0 COMMON     6     2      4
 ---------------------------------------------------------------------------------
 (7) _sqrt                                                29    25      4     957
                                             39 BANK0     29    25      4
                             ___lmul (ARG)
                           ___xxtofl (ARG)
                           i1___bmul (ARG)
 ---------------------------------------------------------------------------------
 (7) ___xxtofl                                            14    10      4     474
                                             25 BANK0     14    10      4
                             ___lmul (ARG)
                           i1___bmul (ARG)
 ---------------------------------------------------------------------------------
 (7) ___lmul                                              13     5      8    4196
                                             10 COMMON     1     1      0
                                             13 BANK0     12     4      8
                            ___lldiv (ARG)
                           i1___bmul (ARG)
 ---------------------------------------------------------------------------------
 (7) ___lldiv                                             14     6      8    1074
                                              9 COMMON     1     1      0
                                              0 BANK0     13     5      8
                           i1___bmul (ARG)
 ---------------------------------------------------------------------------------
 (7) ___fltol                                             10     6      4     989
                                             11 COMMON     2     2      0
                                             76 BANK0      4     4      0
                                             18 BANK1      4     0      4
                            ___fldiv (ARG)
                             ___lmul (ARG)
                           ___xxtofl (ARG)
                               _sqrt (ARG)
                           i1___bmul (ARG)
 ---------------------------------------------------------------------------------
 (7) ___fldiv                                             26    18      8    2945
                                             68 BANK0      8     0      8
                                              0 BANK1     18    18      0
                             ___lmul (ARG)
                           ___xxtofl (ARG)
                               _sqrt (ARG)
                           i1___bmul (ARG)
 ---------------------------------------------------------------------------------
 Estimated maximum stack depth 7
 ---------------------------------------------------------------------------------

 Call Graph Graphs:

 _main (ROOT)
   _GBS_Interrupt_Init
     _GBS_Interrupt_Enable
     _GBS_T2I_Config
   _GBS_Stepper_Init
     _GBS_Stepper_Buffer_Init
       ___bmul
     _GBS_Timer2_Config
   ___awmod
   ___bmul

 _ISR (ROOT)
   _T2I_ISR
     _GBS_Stepper_Exe
       ___fldiv
         ___lmul (ARG)
           ___lldiv (ARG)
             i1___bmul (ARG)
               i1___awmod (ARG)
           i1___bmul (ARG)
             i1___awmod (ARG)
         ___xxtofl (ARG)
           ___lmul (ARG)
             ___lldiv (ARG)
               i1___bmul (ARG)
                 i1___awmod (ARG)
             i1___bmul (ARG)
               i1___awmod (ARG)
           i1___bmul (ARG)
             i1___awmod (ARG)
         _sqrt (ARG)
           ___lmul (ARG)
             ___lldiv (ARG)
               i1___bmul (ARG)
                 i1___awmod (ARG)
             i1___bmul (ARG)
               i1___awmod (ARG)
           ___xxtofl (ARG)
             ___lmul (ARG)
               ___lldiv (ARG)
                 i1___bmul (ARG)
                   i1___awmod (ARG)
               i1___bmul (ARG)
                 i1___awmod (ARG)
             i1___bmul (ARG)
               i1___awmod (ARG)
           i1___bmul (ARG)
             i1___awmod (ARG)
         i1___bmul (ARG)
           i1___awmod (ARG)
       ___fltol
         ___fldiv (ARG)
           ___lmul (ARG)
             ___lldiv (ARG)
               i1___bmul (ARG)
                 i1___awmod (ARG)
             i1___bmul (ARG)
               i1___awmod (ARG)
           ___xxtofl (ARG)
             ___lmul (ARG)
               ___lldiv (ARG)
                 i1___bmul (ARG)
                   i1___awmod (ARG)
               i1___bmul (ARG)
                 i1___awmod (ARG)
             i1___bmul (ARG)
               i1___awmod (ARG)
           _sqrt (ARG)
             ___lmul (ARG)
               ___lldiv (ARG)
                 i1___bmul (ARG)
                   i1___awmod (ARG)
               i1___bmul (ARG)
                 i1___awmod (ARG)
             ___xxtofl (ARG)
               ___lmul (ARG)
                 ___lldiv (ARG)
                   i1___bmul (ARG)
                     i1___awmod (ARG)
                 i1___bmul (ARG)
                   i1___awmod (ARG)
               i1___bmul (ARG)
                 i1___awmod (ARG)
             i1___bmul (ARG)
               i1___awmod (ARG)
           i1___bmul (ARG)
             i1___awmod (ARG)
         ___lmul (ARG)
           ___lldiv (ARG)
             i1___bmul (ARG)
               i1___awmod (ARG)
           i1___bmul (ARG)
             i1___awmod (ARG)
         ___xxtofl (ARG)
           ___lmul (ARG)
             ___lldiv (ARG)
               i1___bmul (ARG)
                 i1___awmod (ARG)
             i1___bmul (ARG)
               i1___awmod (ARG)
           i1___bmul (ARG)
             i1___awmod (ARG)
         _sqrt (ARG)
           ___lmul (ARG)
             ___lldiv (ARG)
               i1___bmul (ARG)
                 i1___awmod (ARG)
             i1___bmul (ARG)
               i1___awmod (ARG)
           ___xxtofl (ARG)
             ___lmul (ARG)
               ___lldiv (ARG)
                 i1___bmul (ARG)
                   i1___awmod (ARG)
               i1___bmul (ARG)
                 i1___awmod (ARG)
             i1___bmul (ARG)
               i1___awmod (ARG)
           i1___bmul (ARG)
             i1___awmod (ARG)
         i1___bmul (ARG)
           i1___awmod (ARG)
       ___lldiv
         i1___bmul (ARG)
           i1___awmod (ARG)
       ___lmul
         ___lldiv (ARG)
           i1___bmul (ARG)
             i1___awmod (ARG)
         i1___bmul (ARG)
           i1___awmod (ARG)
       ___xxtofl
         ___lmul (ARG)
           ___lldiv (ARG)
             i1___bmul (ARG)
               i1___awmod (ARG)
           i1___bmul (ARG)
             i1___awmod (ARG)
         i1___bmul (ARG)
           i1___awmod (ARG)
       _sqrt
         ___lmul (ARG)
           ___lldiv (ARG)
             i1___bmul (ARG)
               i1___awmod (ARG)
           i1___bmul (ARG)
             i1___awmod (ARG)
         ___xxtofl (ARG)
           ___lmul (ARG)
             ___lldiv (ARG)
               i1___bmul (ARG)
                 i1___awmod (ARG)
             i1___bmul (ARG)
               i1___awmod (ARG)
           i1___bmul (ARG)
             i1___awmod (ARG)
         i1___bmul (ARG)
           i1___awmod (ARG)
       i1___awmod
       i1___bmul
         i1___awmod (ARG)
     _GBS_Stepper_Update

 Address spaces:
Name               Size   Autos  Total    Cost      Usage
BITCOMMON            D      0       0       0        0.0%
EEDATA             100      0       0       0        0.0%
NULL                 0      0       0       0        0.0%
CODE                 0      0       0       0        0.0%
COMMON               D      D       D       1      100.0%
BITSFR0              0      0       0       1        0.0%
SFR0                 0      0       0       1        0.0%
BITSFR1              0      0       0       2        0.0%
SFR1                 0      0       0       2        0.0%
STACK                0      0       0       2        0.0%
ABS                  0      0     10B       3        0.0%
BITBANK0            50      0       0       4        0.0%
BITSFR3              0      0       0       4        0.0%
SFR3                 0      0       0       4        0.0%
BANK0               50     50      50       5      100.0%
BITSFR2              0      0       0       5        0.0%
SFR2                 0      0       0       5        0.0%
BITBANK1            50      0       0       6        0.0%
BANK1               50     47      49       7       91.2%
BITBANK3            55      0       0       8        0.0%
BANK3               55      9      15       9       24.7%
BITBANK2            60      0       0      10        0.0%
BANK2               60      0      50      11       83.3%
DATA                 0      0     10B      12        0.0%


Microchip Technology PIC Macro Assembler V2.20 build 20200408173844 
Symbol Table                                                                                   Fri Oct 30 11:15:54 2020

                    ___fldiv@aexp 00B1                      ___fldiv@bexp 00B0                      ___fldiv@sign 00A9  
                  ___bmul@product 019D                                l65 0864                                l68 0850  
                              l86 0028                                fsr 0004                               l132 096A  
                             l154 0937                               l308 0890                               l159 0907  
                             l448 0A66                               _PR2 0092                               _ISR 08C6  
                             _PSA 040B                               fsr0 0004                               indf 0000  
                    ___awmod@sign 01A1                   __end_of_T2I_ISR 08AA                              ?_ISR 0071  
                    ___fltol@exp1 007D                              l2000 0964                              l2010 08FD  
                            l2002 08E8                              l2012 0901                              l2100 0928  
                            l2102 0931                              l2110 0A0C                              l2008 08E9  
                            l2120 0A1E                              l2112 0A0F                              l2130 0A37  
                            l2122 0A23                              l2114 0A13                              l2132 0A3B  
                            l2124 0A29                              l2140 0A58                              l2116 0A18  
                            l2142 0A5D                              l2134 0A45                              l2126 0A2C  
                            l2118 0A1A                              l2150 00C1                              l2144 0A62  
                            l2136 0A4B                              l2128 0A33                              l2152 00C6  
                            l2090 085F                              l2138 0A52                              l2154 00DC  
                            l2092 0908                              l2156 01AB                              l2148 00BC  
                            l2094 0918                              l2158 01C9                              l2088 0859  
                            l2096 091B                              l2098 091E                              l1670 0888  
                            l1662 087D                              l1672 088A                              l1664 087E  
                            l1674 088F                              l1666 0882                              l1668 0886  
                            l1990 001F                              l1992 084E                              l1994 093B  
                            l1988 001C                              l1996 0945                              l1998 0960  
                            _T0CS 040D                              u2300 0942                              u2301 093E  
                            u2320 0907                              u2321 0906                              u2314 0945  
                            u2510 0A3B                              u2511 0A3A                              u1560 0882  
                            u2520 0A45                              u1561 0881                              u2521 0A44  
                            u2505 0A2D                              u1570 088F                              u1571 088E  
                            u2540 0A58                              u2541 0A57                              u2525 0A41  
                            u2550 0A5D                              u2470 0A13                              u2551 0A5C  
                            u2535 0A4C                              u2471 0A12                              u2480 0A1E  
                            u2560 00DC                              u2481 0A1D                              u2561 00DB  
                            u2490 0A29                              u2491 0A28                              u2627 01D1  
                            i1l92 08D4                              _TMR0 0001                              _TMR1 000E  
                            _TMR2 0011                              _main 00BC                              btemp 007E  
                            _sqrt 0B8B                              start 0016                   ___fldiv@new_exp 00AA  
               ___bmul@multiplier 019E                             ??_ISR 00E3                     ___fltol@sign1 007C  
                           ?_main 0071                   __end_of___fldiv 1000                   __end_of___awmod 0A67  
                 __end_of___fltol 00BC                             _ANSEL 0188                   __end_of___lldiv 0ACF  
                           ?_sqrt 0047                             i1l308 0879                             i1l318 0ACE  
                           i1l184 07CA                             i1l192 08C5                             i1l187 07E6  
                           i1l196 08A9                             i1l702 0D6A                             i1l631 0DE9  
                           i1l296 09B2                             i1l448 0A0B                             i1l633 0FFF  
                           i1l475 00A4                             i1l468 00BB                             i1l709 0C9E  
                           i1l478 00BB                             i1l655 0FEB                             i1l647 0F39  
                           i1l735 0AF3                             i1l737 0B8A                             i1l748 0B54  
                           i1l749 0B60               ___lmul@multiplicand 0031                    i1___awmod@sign 0076  
                           _errno 00E7                  __end_ofi1___bmul 087A                             pclath 000A  
                           sqrt@a 0047                             sqrt@i 0050                             sqrt@p 0055  
                           status 0003                             wtemp0 007E                __size_ofi1___awmod 0059  
                 __initialization 07E7                      __end_of_main 01DC                      __end_of_sqrt 0D6B  
                          ??_main 01A2                            ??_sqrt 004B                         ??_T2I_ISR 007E  
 GBS_Stepper_Buffer_Init@sBufferX 01A0                            _CCPR1L 0015                            _ANSELH 0189  
                          i1l2020 0219                            i1l2030 0323                            i1l2022 0230  
                          i1l2014 01DF                            i1l2040 0455                            i1l2032 042D  
                          i1l2024 02BB                            i1l2016 01E8                            i1l2104 0891  
                          i1l2050 0603                            i1l2042 04EB                            i1l2026 02E6  
                          i1l2034 0432                            i1l2018 0203                            i1l2106 0898  
                          i1l2052 0643                            i1l2044 0531                            i1l2028 031C  
                          i1l2036 0435                            i1l2108 08A4                            i1l2054 0689  
                          i1l2046 0577                            i1l2038 0450                            u200_20 0F5B  
                          i1l1600 0C25                            i1l2056 077B                            i1l2048 05BD  
                          i1l2160 08C6                            u200_21 0F5A                            i1l1610 0C4C  
                          i1l1602 0C2E                            i1l2058 07A2                            i1l2082 08AA  
                          i1l2162 08CC                            i1l1700 0AC6                            i1l1612 0C4E  
                          i1l1620 0CC4                            i1l1604 0C36                            i1l2084 08B1  
                          i1l2164 08D1                            i1l1710 003F                            i1l1630 0D23  
                          i1l1622 0CCA                            i1l1614 0C68                            i1l1606 0C3E  
                          i1l2086 08B5                            u201_20 0F78                            i1l1800 0E4A  
                          i1l1720 0073                            i1l1712 0062                            i1l1704 0029  
                          i1l1640 0D56                            i1l1632 0D3C                            i1l1624 0CE3  
                          i1l1616 0C8E                            i1l1608 0C43                            i1l1560 0B9C  
                          i1l1810 0E7B                            i1l1802 0E54                            i1l1730 008D  
                          i1l1714 0065                            i1l1706 0036                            i1l1650 0975  
                          i1l1642 0D57                            i1l1634 0D42                            i1l1626 0CEF  
                          i1l1618 0CC0                            i1l1570 0BBD                            i1l1562 0B9D  
                          i1l1554 0B8B                            i1l1820 0EB0                            i1l1812 0E7F  
                          i1l1804 0E5E                            i1l1740 00AE                            i1l1716 006D  
                          i1l1652 0979                            i1l1900 0B09                            i1l1644 0D62  
                          i1l1636 0D4E                            i1l1628 0D1F                            i1l1580 0BD4  
                          i1l1564 0BB0                            i1l1556 0B92                            u201_25 0F73  
                          i1l1830 0EEC                            i1l1822 0ED8                            i1l1814 0E82  
                          i1l1806 0E60                            i1l1750 0D87                            i1l1742 0D6B  
                          i1l1726 007B                            i1l1718 006F                            i1l1654 0990  
                          i1l1910 0B2F                            i1l1902 0B0D                            i1l1638 0D52  
                          i1l1582 0BD9                            i1l1574 0BC5                            i1l1566 0BB6  
                          i1l1558 0B98                            u202_20 0FA7                            i1l1832 0EFB  
                          i1l1840 0F13                            i1l1808 0E65                            i1l1816 0E8D  
                          i1l1824 0EDC                            i1l1752 0D8E                            i1l1760 0DA1  
                          i1l1744 0D74                            i1l1736 0094                            i1l1728 0084  
                          i1l1680 0A79                            i1l1656 0999                            i1l1648 096B  
                          i1l1920 0B58                            i1l1912 0B38                            i1l1904 0B16  
                          i1l1592 0C0D                            i1l1576 0BCB                            i1l1568 0BB7  
                          u202_21 0FA6                            i1l1842 0F19                            i1l1834 0EFF  
                          i1l1826 0EE2                            i1l1818 0EAF                            i1l1770 0DC5  
                          i1l1762 0DAB                            i1l1754 0D93                            i1l1746 0D7E  
                          i1l1738 00A9                            i1l1690 0A96                            i1l1682 0A7C  
                          i1l1658 09AA                            i1l1930 0B82                            i1l1922 0B62  
                          i1l1914 0B3F                            i1l1906 0B1D                            i1l1594 0C13  
                          i1l1586 0BF6                            i1l1860 0F90                            i1l1852 0F40  
                          i1l1844 0F1C                            i1l1836 0F02                            i1l1828 0EEA  
                          i1l1772 0DCC                            i1l1780 0DDF                            i1l1764 0DB2  
                          i1l1756 0D9D                            i1l1748 0D84                            i1l1692 0AA8  
                          i1l1684 0A85                            i1l1924 0B78                            i1l1916 0B4A  
                          i1l1908 0B21                            i1l1596 0C18                            i1l1588 0BFC  
                          i1l1940 09BD                            u202_25 0FA3                            u210_25 0B30  
                          i1l1870 0FCA                            i1l1854 0F47                            i1l1862 0F98  
                          i1l1846 0F20                            i1l1838 0F0D                            i1l1782 0DF1  
                          i1l1790 0E0E                            i1l1774 0DD1                            i1l1766 0DBC  
                          i1l1758 0D9F                            i1l1694 0AB6                            i1l1686 0A89  
                          i1l1678 0A67                            i1l1926 0B7D                            i1l1918 0B4E  
                          i1l1598 0C1F                            i1l1950 09D1                            i1l1942 09BF  
                          i1l1934 09B3                            i1l1880 0FE5                            i1l1872 0FD4  
                          u203_20 0FC6                            i1l1864 0FA7                            i1l1856 0F57  
                          i1l1848 0F34                            i1l1792 0E15                            i1l1784 0DFD  
                          i1l1776 0DDB                            i1l1768 0DC2                            i1l1696 0AB7  
                          i1l1688 0A8D                            i1l1928 0B81                            u211_20 0B3E  
                          u131_20 0B9C                            i1l1960 09F0                            i1l1952 09D8  
                          i1l1944 09C3                            i1l1936 09B4                            u203_21 0FC5  
                          u211_21 0B3D                            u131_21 0B9B                            i1l1874 0FD7  
                          i1l1866 0FB7                            i1l1858 0F5B                            i1l1786 0E05  
                          i1l1778 0DDD                            i1l1698 0AC0                            i1l1890 0ADB  
                          i1l1962 09F7                            i1l1954 09DC                            i1l1946 09C8  
                          i1l1938 09B8                            i1l1876 0FDD                            i1l1868 0FC6  
                          i1l1796 0E20                            i1l1892 0AEB                            i1l1956 09E0  
                          i1l1948 09CE                            i1l1964 09FD                            i1l1980 0871  
                          i1l1972 0866                            u203_25 0FC2                            i1l1878 0FE1  
                          i1l1798 0E32                            i1l1894 0AFB                            i1l1886 0AD2  
                          i1l1966 0A02                            i1l1958 09EA                            i1l1982 0873  
                          i1l1974 0867                            u204_20 0FE1                            i1l1888 0AD7  
                          u140_20 0C68                            u132_20 0BB6                            i1l1968 0A07  
                          u220_20 09C3                            i1l1984 0878                            i1l1976 086B  
                          u204_21 0FE0                            u140_21 0C67                            u132_21 0BB5  
                          u220_21 09C2                            i1l1898 0B04                            i1l1978 086F  
                          u212_25 0B43                            u140_25 0C64                            u213_20 0B4E  
                          u205_20 0AD7                            u133_20 0BBD                            u221_20 09CE  
                          u213_21 0B4D                            u205_21 0AD6                            u141_21 0C7F  
                          u133_21 0BBC                            u221_21 09CD                            u141_22 0C86  
                          u141_23 0C8D                            u214_20 0B54                            u206_20 0ADB  
                          u150_20 0D56                            u142_20 0CAC                            u134_20 0BCB  
                          u214_21 0B53                            u206_21 0ADA                            u150_21 0D55  
                          u134_21 0BCA                            u142_25 0CA7                            u222_25 09D2  
                          u151_20 0979                            u215_20 0B58                            u207_20 0AFB  
                          u135_20 0BD9                            u223_20 09E0                            u151_21 0978  
                          u215_21 0B57                            u207_21 0AFA                            u135_21 0BD8  
                          u223_21 09DF                            u143_25 0CB9                            u160_20 0A8D  
                          u216_20 0B6D                            u144_20 0CCA                            u136_20 0BFC  
                          u224_20 09EA                            u240_20 0355                            u160_21 0A8C  
                          u152_21 0982                            u144_21 0CC9                            u136_21 0BFB  
                          u224_21 09E9                            u152_22 0989                            u152_23 0990  
                          u216_25 0B68                            u208_25 0B0E                            u224_25 09E6  
                          u240_25 0350                            u217_20 0B7D                            u209_20 0B1C  
                          u145_20 0CD8                            u241_20 03B0                            u233_20 01E8  
                          u217_21 0B7C                            u209_21 0B1B                            u241_21 03B3  
                          u233_21 01E7                            u241_22 03BA                            u241_23 03BD  
                          u161_25 0A8F                            u153_25 0992                            u145_25 0CD3  
                          u137_25 0C1A                            u225_25 09F1                            u170_20 008C  
                          u162_20 0AA8                            u218_20 0B81                            u146_20 0CFD  
                          u138_20 0C43                            u226_20 09FD                            u242_20 0450  
                          u234_20 0219                            u170_21 008B                            u162_21 0AA7  
                          u218_21 0B80                            u138_21 0C42                            u226_21 09FC  
                          u242_21 044F                            u234_21 0218                            u162_25 0AA4  
                          u154_25 099A                            u146_25 0CF8                            u171_20 0093  
                          u155_20 09AA                            u227_20 0A02                            u219_20 09B8  
                          u243_20 0745                            u235_20 0296                            u171_21 0092  
                          u155_21 09A9                            u147_21 0D11                            u227_21 0A01  
                          u219_21 09B7                            u243_21 0748                            u235_21 0297  
                          u147_22 0D18                            u243_22 074F                            u235_22 029C  
                          u147_23 0D1F                            u243_23 0752                            u235_23 029D  
                          u163_25 0AB8                            u139_25 0C45                            u180_20 0DD1  
                          u164_20 0AC6                            u148_20 0D23                            u228_20 086B  
                          u244_20 0761                            u236_20 02A8                            u180_21 0DD0  
                          u164_21 0AC5                            u148_21 0D22                            u228_21 086A  
                          u244_21 0762                            u236_21 02A9                            u244_22 0767  
                          u236_22 02AE                            u244_23 0768                            u236_23 02AF  
                          u172_25 0097                            u181_20 0DF1                            u173_20 00A9  
                          u165_20 0036                            u149_20 0D31                            u229_20 0878  
                          u237_20 02BB                            u245_20 08B1                            u181_21 0DF0  
                          u173_21 00A8                            u165_21 0035                            u229_21 0877  
                          u237_21 02BA                            u245_21 08B0                            u149_25 0D2C  
                          u190_20 0EE2                            u182_20 0E15                            u174_20 00AE  
                          u166_20 005B                            u158_20 0A79                            u238_20 02E6  
                          u246_20 0898                            u190_21 0EE1                            u182_21 0E14  
                          u174_21 00AD                            u158_21 0A78                            u238_21 02E5  
                          u246_21 0897                            u166_25 0056                            u191_20 0EEA  
                          u183_20 0E65                            u175_20 0D84                            u167_20 0073  
                          u239_20 0323                            u191_21 0EE9                            u183_21 0E64  
                          u175_21 0D83                            u167_21 0072                            u239_21 0322  
                          u159_25 0A7E                            u176_20 0D8E                            u168_20 007A  
                          u176_21 0D8D                            u168_21 0079                            u192_25 0EF0  
                          u184_25 0E67                            u193_20 0EFF                            u177_20 0D93  
                          u257_20 08CC                            u193_21 0EFE                            u177_21 0D92  
                          u257_21 08CB                            u185_25 0E70                            u169_25 007C  
                          u186_20 0E7F                            u178_20 0DC2                            u186_21 0E7E  
                          u178_21 0DC1                            u194_25 0F06                            u195_20 0F19  
                          u179_20 0DCC                            u195_21 0F18                            u179_21 0DCB  
                          u187_25 0E86                            u196_20 0F20                            u188_20 0EAF  
                          u196_21 0F1F                            u188_21 0EAE                            u188_25 0EAB  
                          u197_20 0F34                            u189_20 0ED4                            u197_21 0F33  
                          u189_25 0EBD                            u189_26 0EC0                            u189_27 0EC7  
                          u198_20 0F3F                            u189_28 0ECA                            u198_21 0F3E  
                          u189_29 0ED1                            u199_20 0F47                            u199_21 0F46  
                          _TMR2ON 0092                  __end_of___xxtofl 0B8B          ?_GBS_Stepper_Buffer_Init 0071  
                          ___bmul 087A                            ___lmul 096B                         ??___fldiv 00A0  
                       ??___awmod 01A0                         ??___fltol 006C                         ??___lldiv 007A  
                 ___awmod@divisor 019C                   ___awmod@counter 01A0                 __end_ofi1___awmod 0A0C  
                          saved_w 007E      __end_of_GBS_Interrupt_Enable 0851                      ___xxtofl@arg 0043  
                    ___xxtofl@exp 0042                      ___xxtofl@val 0039           __end_of__initialization 07FC  
                      ___fltol@f1 00B2               ___bmul@multiplicand 019C                    __pcstackCOMMON 0071  
          GBS_Timer2_Config@outPS 019D            GBS_Timer2_Config@state 01A0         __size_of_GBS_Stepper_Init 0030  
                       ?i1___bmul 0077                    _OPTION_REGbits 0081                  i1___bmul@product 0078  
         __size_of_GBS_T2I_Config 0010        __end_of_GBS_Interrupt_Init 0865                        __pbssBANK1 00E7  
                      __pbssBANK2 0110                        __pbssBANK3 0190   __end_of_GBS_Stepper_Buffer_Init 0908  
     __size_of_GBS_Stepper_Update 001C                        __pmaintext 00BC                           ?___bmul 019C  
                         ?___lmul 002D                        __pintentry 0004          __size_of_GBS_Stepper_Exe 060B  
                  ___lmul@product 0035                        ??i1___bmul 0078                           _T2CKPS1 0091  
                         _T2I_ISR 0891                         ?___xxtofl 0039                   __size_of___bmul 0017  
                         ___fldiv 0D6B              _GBS_Interrupt_Enable 084E                   __size_of___lmul 0048  
                         ___awmod 0A0C                           ___fltol 0029                           ___lldiv 0A67  
                         __ptext1 0A0C                           __ptext2 0908                           __ptext3 0938  
                         __ptext4 08E5                           __ptext5 087A                           __ptext6 0859  
                         __ptext7 0019                           __ptext8 084E                           __ptext9 08C6  
                    __size_of_ISR 001F                         _T1CONbits 0010                         _T2CONbits 0012  
                      ??___xxtofl 003D                  ___awmod@dividend 019E               i1___bmul@multiplier 0079  
                         clrloop0 0852              end_of_initialization 07FC                   ___lldiv@divisor 0020  
                 ___lldiv@counter 002C             ?_GBS_Interrupt_Enable 0071                           sqrt@grs 0056  
                         sqrt@exp 005A                  _GBS_Stepper_Init 0908  __size_of_GBS_Stepper_Buffer_Init 0023  
               ??_GBS_Stepper_Exe 00B7                     ___xxtofl@sign 0041                         _TRISAbits 0085  
                       _TRISBbits 0086                         _TRISCbits 0087                         _TRISDbits 0088  
                       _TRISEbits 0089                    _GBS_T2I_Config 0019                         i1___awmod 09B3  
                     ___fldiv@grs 00AC                       ___fldiv@rem 00A5                       _CCP1CONbits 0017  
         GBS_Timer2_Config@timVar 019E                    __end_of___bmul 0891                    __end_of___lmul 09B3  
          __end_of_GBS_T2I_Config 0029                 __size_ofi1___bmul 0015               start_initialization 07E7  
                     __end_of_ISR 08E5                        ?i1___awmod 0071                 _GBS_Timer2_Config 0938  
              ?_GBS_Timer2_Config 019C            ??_GBS_Interrupt_Enable 019C               ??_GBS_Timer2_Config 019F  
              _GBS_Interrupt_Init 0859                          ??___bmul 019D                          ??___lmul 007B  
              i1___awmod@dividend 0073               ?_GBS_Interrupt_Init 0071                          ?_T2I_ISR 0071  
                       ___fldiv@a 0064                         ___fldiv@b 0068                   ?_GBS_T2I_Config 0071  
                       ___latbits 0002             GBS_Timer2_Config@ckPS 019C                     __pcstackBANK0 0020  
                   __pcstackBANK1 00A0                     __pcstackBANK3 019C         __end_of_GBS_Timer2_Config 096B  
               __size_of___xxtofl 00BC        __end_of_GBS_Stepper_Update 08C6              ??_GBS_Interrupt_Init 019D  
                        ?___fldiv 0064                          ?___awmod 019C                          ?___fltol 00B2  
                        ?___lldiv 0020           _GBS_Stepper_Buffer_Init 08E5              _GBS_Stepper_Exe$1422 00C6  
            _GBS_Stepper_Exe$1423 00CA              _GBS_Stepper_Exe$1424 00CE              _GBS_Stepper_Exe$1425 00D2  
            _GBS_Stepper_Exe$1426 00D6              _GBS_Stepper_Exe$1427 00DA              _GBS_Stepper_Exe$1428 00DE  
                     ??i1___awmod 0075                GBS_T2I_Config@mode 019C          __end_of_GBS_Stepper_Init 0938  
               interrupt_function 0004                          _IOCBbits 0096                         clear_ram0 0851  
                        _PIE1bits 008C             i1___bmul@multiplicand 0077                          _PIR1bits 000C  
                 _GBS_Stepper_Exe 01DC                          i1___bmul 0865                  __size_of_T2I_ISR 0019  
      __size_of_GBS_Timer2_Config 0033                 ___lmul@multiplier 002D                 i1___awmod@divisor 0071  
               i1___awmod@counter 0075         ??_GBS_Stepper_Buffer_Init 019F                  __size_of___fldiv 0295  
                __size_of___awmod 005B                  __size_of___fltol 0093                  __size_of___lldiv 0068  
                        ___xxtofl 0ACF                          _sBufferA 0110                          __ptext10 0891  
                        __ptext11 08AA                          __ptext20 0D6B                          __ptext12 01DC  
                        __ptext13 0865                          __ptext14 09B3                          __ptext15 0B8B  
                        __ptext16 0ACF                          __ptext17 096B                          __ptext18 0A67  
                        __ptext19 0029                     __size_of_main 0120                     __size_of_sqrt 01E0  
         __end_of_GBS_Stepper_Exe 07E7          GBS_Stepper_Buffer_Init@i 01A1                          _stepperA 0190  
                ??_GBS_T2I_Config 019C                        _INTCONbits 000B                         sqrt@tfrac 0051  
                        intlevel1 0000           GBS_Stepper_Exe@sBufferX 00B6                  ___lldiv@dividend 0024  
              _GBS_Stepper_Update 08AA     __size_of_GBS_Interrupt_Enable 0003                          sqrt@frac 0060  
             ?_GBS_Stepper_Update 0071                          sqrt@sign 004F                          sqrt@root 005C  
                ___lldiv@quotient 0028           GBS_Stepper_Exe@stepperX 00E2              ??_GBS_Stepper_Update 0071  
     __size_of_GBS_Interrupt_Init 000C                 ?_GBS_Stepper_Init 0071                  ?_GBS_Stepper_Exe 00B6  
              ??_GBS_Stepper_Init 01A2  
